ARM GAS  C:\Users\Vento\AppData\Local\Temp\ccHbfWGm.s 			page 1


   1              		.cpu cortex-m3
   2              		.eabi_attribute 20, 1
   3              		.eabi_attribute 21, 1
   4              		.eabi_attribute 23, 3
   5              		.eabi_attribute 24, 1
   6              		.eabi_attribute 25, 1
   7              		.eabi_attribute 26, 1
   8              		.eabi_attribute 30, 1
   9              		.eabi_attribute 34, 1
  10              		.eabi_attribute 18, 4
  11              		.file	"freertos.c"
  12              		.text
  13              	.Ltext0:
  14              		.cfi_sections	.debug_frame
  15              		.section	.rodata.MQTT_Task.str1.4,"aMS",%progbits,1
  16              		.align	2
  17              	.LC0:
  18 0000 6D332D77 		.ascii	"m3-world\000"
  18      6F726C64 
  18      00
  19 0009 000000   		.align	2
  20              	.LC1:
  21 000c 6D6D7300 		.ascii	"mms\000"
  22              		.align	2
  23              	.LC2:
  24 0010 686F7472 		.ascii	"hotrodotquy.vn\000"
  24      6F646F74 
  24      7175792E 
  24      766E00
  25 001f 00       		.align	2
  26              	.LC3:
  27 0020 00       		.ascii	"\000"
  28 0021 000000   		.align	2
  29              	.LC4:
  30 0024 686D00   		.ascii	"hm\000"
  31 0027 00       		.align	2
  32              	.LC5:
  33 0028 0D0A00   		.ascii	"\015\012\000"
  34 002b 00       		.align	2
  35              	.LC6:
  36 002c 41540D0A 		.ascii	"AT\015\012\000"
  36      00
  37 0031 000000   		.align	2
  38              	.LC7:
  39 0034 4F4B0D0A 		.ascii	"OK\015\012\000"
  39      00
  40 0039 000000   		.align	2
  41              	.LC8:
  42 003c 41542B43 		.ascii	"AT+CMGF=1\015\012\000"
  42      4D47463D 
  42      310D0A00 
  43              		.align	2
  44              	.LC9:
  45 0048 41542B43 		.ascii	"AT+CFUN=1\015\012\000"
  45      46554E3D 
  45      310D0A00 
  46              		.align	2
ARM GAS  C:\Users\Vento\AppData\Local\Temp\ccHbfWGm.s 			page 2


  47              	.LC10:
  48 0054 41542B43 		.ascii	"AT+CSCS=\"GSM\"\015\012\000"
  48      5343533D 
  48      2247534D 
  48      220D0A00 
  49              		.align	2
  50              	.LC11:
  51 0064 41542B43 		.ascii	"AT+CSMP=17,167,0,0\015\012\000"
  51      534D503D 
  51      31372C31 
  51      36372C30 
  51      2C300D0A 
  52 0079 000000   		.align	2
  53              	.LC12:
  54 007c 3000     		.ascii	"0\000"
  55 007e 0000     		.align	2
  56              	.LC13:
  57 0080 6D616E64 		.ascii	"mandevices/stroke-medical/human/fall\000"
  57      65766963 
  57      65732F73 
  57      74726F6B 
  57      652D6D65 
  58 00a5 000000   		.align	2
  59              	.LC14:
  60 00a8 3E00     		.ascii	">\000"
  61 00aa 0000     		.align	2
  62              	.LC15:
  63 00ac 41542B43 		.ascii	"AT+CMGS=\"0855484556\"\015\012\000"
  63      4D47533D 
  63      22303835 
  63      35343834 
  63      35353622 
  64 00c3 00       		.align	2
  65              	.LC16:
  66 00c4 3100     		.ascii	"1\000"
  67 00c6 0000     		.align	2
  68              	.LC17:
  69 00c8 6D616E64 		.ascii	"mandevices/stroke-medical/human/fall/loc\000"
  69      65766963 
  69      65732F73 
  69      74726F6B 
  69      652D6D65 
  70 00f1 000000   		.align	2
  71              	.LC18:
  72 00f4 41544430 		.ascii	"ATD0855484556;\015\012\000"
  72      38353534 
  72      38343535 
  72      363B0D0A 
  72      00
  73 0105 000000   		.align	2
  74              	.LC19:
  75 0108 4154480D 		.ascii	"ATH\015\012\000"
  75      0A00
  76              		.section	.text.MQTT_Task,"ax",%progbits
  77              		.align	1
  78              		.global	MQTT_Task
  79              		.arch armv7-m
ARM GAS  C:\Users\Vento\AppData\Local\Temp\ccHbfWGm.s 			page 3


  80              		.syntax unified
  81              		.thumb
  82              		.thumb_func
  83              		.fpu softvfp
  85              	MQTT_Task:
  86              	.LVL0:
  87              	.LFB70:
  88              		.file 1 "Core/Src/freertos.c"
   1:Core/Src/freertos.c **** /* USER CODE BEGIN Header */
   2:Core/Src/freertos.c **** /**
   3:Core/Src/freertos.c ****   ******************************************************************************
   4:Core/Src/freertos.c ****   * File Name          : freertos.c
   5:Core/Src/freertos.c ****   * Description        : Code for freertos applications
   6:Core/Src/freertos.c ****   ******************************************************************************
   7:Core/Src/freertos.c ****   * @attention
   8:Core/Src/freertos.c ****   *
   9:Core/Src/freertos.c ****   * Copyright (c) 2022 STMicroelectronics.
  10:Core/Src/freertos.c ****   * All rights reserved.
  11:Core/Src/freertos.c ****   *
  12:Core/Src/freertos.c ****   * This software is licensed under terms that can be found in the LICENSE file
  13:Core/Src/freertos.c ****   * in the root directory of this software component.
  14:Core/Src/freertos.c ****   * If no LICENSE file comes with this software, it is provided AS-IS.
  15:Core/Src/freertos.c ****   *
  16:Core/Src/freertos.c ****   ******************************************************************************
  17:Core/Src/freertos.c ****   */
  18:Core/Src/freertos.c **** /* USER CODE END Header */
  19:Core/Src/freertos.c **** 
  20:Core/Src/freertos.c **** /* Includes ------------------------------------------------------------------*/
  21:Core/Src/freertos.c **** #include "FreeRTOS.h"
  22:Core/Src/freertos.c **** #include "task.h"
  23:Core/Src/freertos.c **** #include "main.h"
  24:Core/Src/freertos.c **** #include "cmsis_os.h"
  25:Core/Src/freertos.c **** 
  26:Core/Src/freertos.c **** /* Private includes ----------------------------------------------------------*/
  27:Core/Src/freertos.c **** /* USER CODE BEGIN Includes */
  28:Core/Src/freertos.c **** 
  29:Core/Src/freertos.c **** #include "MQTTSim800.h"
  30:Core/Src/freertos.c **** #include "mpu6050.h"
  31:Core/Src/freertos.c **** #include "math.h"
  32:Core/Src/freertos.c **** #include "string.h"
  33:Core/Src/freertos.c **** 
  34:Core/Src/freertos.c **** /* USER CODE END Includes */
  35:Core/Src/freertos.c **** 
  36:Core/Src/freertos.c **** /* Private typedef -----------------------------------------------------------*/
  37:Core/Src/freertos.c **** /* USER CODE BEGIN PTD */
  38:Core/Src/freertos.c **** 
  39:Core/Src/freertos.c **** typedef struct
  40:Core/Src/freertos.c **** {
  41:Core/Src/freertos.c ****   uint8_t SIM;
  42:Core/Src/freertos.c ****   uint8_t GPRS;
  43:Core/Src/freertos.c ****   uint8_t MQTT;
  44:Core/Src/freertos.c **** } SIM800_St;
  45:Core/Src/freertos.c **** 
  46:Core/Src/freertos.c **** /* USER CODE END PTD */
  47:Core/Src/freertos.c **** 
  48:Core/Src/freertos.c **** /* Private define ------------------------------------------------------------*/
  49:Core/Src/freertos.c **** /* USER CODE BEGIN PD */
ARM GAS  C:\Users\Vento\AppData\Local\Temp\ccHbfWGm.s 			page 4


  50:Core/Src/freertos.c **** 
  51:Core/Src/freertos.c **** #define SIM_R_OK    0
  52:Core/Src/freertos.c **** #define SIM_R_nOK   1
  53:Core/Src/freertos.c **** 
  54:Core/Src/freertos.c **** #define MPU_OK  0
  55:Core/Src/freertos.c **** #define MPU_nOK 1
  56:Core/Src/freertos.c **** 
  57:Core/Src/freertos.c **** /* USER CODE END PD */
  58:Core/Src/freertos.c **** 
  59:Core/Src/freertos.c **** /* Private macro -------------------------------------------------------------*/
  60:Core/Src/freertos.c **** /* USER CODE BEGIN PM */
  61:Core/Src/freertos.c **** 
  62:Core/Src/freertos.c **** /* USER CODE END PM */
  63:Core/Src/freertos.c **** 
  64:Core/Src/freertos.c **** /* Private variables ---------------------------------------------------------*/
  65:Core/Src/freertos.c **** /* USER CODE BEGIN Variables */
  66:Core/Src/freertos.c **** 
  67:Core/Src/freertos.c **** extern UART_HandleTypeDef huart1;
  68:Core/Src/freertos.c **** extern I2C_HandleTypeDef hi2c1;
  69:Core/Src/freertos.c **** extern IWDG_HandleTypeDef hiwdg;
  70:Core/Src/freertos.c **** extern SIM800_t SIM800;
  71:Core/Src/freertos.c **** extern uint8_t rx_data;
  72:Core/Src/freertos.c **** extern SIM800_St SIM800_Status;
  73:Core/Src/freertos.c **** 
  74:Core/Src/freertos.c **** MPU6050_t MPU6050;
  75:Core/Src/freertos.c **** 
  76:Core/Src/freertos.c **** float gGravity = 0.0;
  77:Core/Src/freertos.c **** uint8_t is_fall = 0;
  78:Core/Src/freertos.c **** uint8_t is_MPU_OK = 0;
  79:Core/Src/freertos.c **** 
  80:Core/Src/freertos.c **** char call[25] = "ATD+84816056426;\r\n";
  81:Core/Src/freertos.c **** char SMSStrg[110] = "BENH NHAN DA BI NGA!\nToa do benh nhan: https://www.google.com/maps/search/?ap
  82:Core/Src/freertos.c **** // char InfoBV1[110] = "Benh vien Da khoa Hoan My Cuu Long, SDT: 02923917901\nBenh vien Da khoa S.I
  83:Core/Src/freertos.c **** // char InfoBV2[110] = "Benh vien Da khoa Thanh pho Can Tho, SDT: 02923821235\nBenh vien Da khoa Tr
  84:Core/Src/freertos.c **** char Loc[25] = "10.035911,105.783660";
  85:Core/Src/freertos.c **** 
  86:Core/Src/freertos.c **** /* USER CODE END Variables */
  87:Core/Src/freertos.c **** /* Definitions for MQTT */
  88:Core/Src/freertos.c **** osThreadId_t MQTTHandle;
  89:Core/Src/freertos.c **** const osThreadAttr_t MQTT_attributes = {
  90:Core/Src/freertos.c ****   .name = "MQTT",
  91:Core/Src/freertos.c ****   .stack_size = 250 * 4,
  92:Core/Src/freertos.c ****   .priority = (osPriority_t) osPriorityNormal,
  93:Core/Src/freertos.c **** };
  94:Core/Src/freertos.c **** /* Definitions for SENSORs */
  95:Core/Src/freertos.c **** osThreadId_t SENSORsHandle;
  96:Core/Src/freertos.c **** const osThreadAttr_t SENSORs_attributes = {
  97:Core/Src/freertos.c ****   .name = "SENSORs",
  98:Core/Src/freertos.c ****   .stack_size = 150 * 4,
  99:Core/Src/freertos.c ****   .priority = (osPriority_t) osPriorityLow,
 100:Core/Src/freertos.c **** };
 101:Core/Src/freertos.c **** /* Definitions for SecTimer */
 102:Core/Src/freertos.c **** osTimerId_t SecTimerHandle;
 103:Core/Src/freertos.c **** const osTimerAttr_t SecTimer_attributes = {
 104:Core/Src/freertos.c ****   .name = "SecTimer"
 105:Core/Src/freertos.c **** };
 106:Core/Src/freertos.c **** 
ARM GAS  C:\Users\Vento\AppData\Local\Temp\ccHbfWGm.s 			page 5


 107:Core/Src/freertos.c **** /* Private function prototypes -----------------------------------------------*/
 108:Core/Src/freertos.c **** /* USER CODE BEGIN FunctionPrototypes */
 109:Core/Src/freertos.c **** 
 110:Core/Src/freertos.c **** 
 111:Core/Src/freertos.c **** 
 112:Core/Src/freertos.c **** /* USER CODE END FunctionPrototypes */
 113:Core/Src/freertos.c **** 
 114:Core/Src/freertos.c **** void MQTT_Task(void *argument);
 115:Core/Src/freertos.c **** void Sensor_Task(void *argument);
 116:Core/Src/freertos.c **** void Callback01(void *argument);
 117:Core/Src/freertos.c **** 
 118:Core/Src/freertos.c **** void MX_FREERTOS_Init(void); /* (MISRA C 2004 rule 8.1) */
 119:Core/Src/freertos.c **** 
 120:Core/Src/freertos.c **** /**
 121:Core/Src/freertos.c ****   * @brief  FreeRTOS initialization
 122:Core/Src/freertos.c ****   * @param  None
 123:Core/Src/freertos.c ****   * @retval None
 124:Core/Src/freertos.c ****   */
 125:Core/Src/freertos.c **** void MX_FREERTOS_Init(void) {
 126:Core/Src/freertos.c ****   /* USER CODE BEGIN Init */
 127:Core/Src/freertos.c **** 
 128:Core/Src/freertos.c ****   /* USER CODE END Init */
 129:Core/Src/freertos.c **** 
 130:Core/Src/freertos.c ****   /* USER CODE BEGIN RTOS_MUTEX */
 131:Core/Src/freertos.c ****   /* add mutexes, ... */
 132:Core/Src/freertos.c ****   /* USER CODE END RTOS_MUTEX */
 133:Core/Src/freertos.c **** 
 134:Core/Src/freertos.c ****   /* USER CODE BEGIN RTOS_SEMAPHORES */
 135:Core/Src/freertos.c ****   /* add semaphores, ... */
 136:Core/Src/freertos.c ****   /* USER CODE END RTOS_SEMAPHORES */
 137:Core/Src/freertos.c **** 
 138:Core/Src/freertos.c ****   /* Create the timer(s) */
 139:Core/Src/freertos.c ****   /* creation of SecTimer */
 140:Core/Src/freertos.c ****   SecTimerHandle = osTimerNew(Callback01, osTimerPeriodic, NULL, &SecTimer_attributes);
 141:Core/Src/freertos.c **** 
 142:Core/Src/freertos.c ****   /* USER CODE BEGIN RTOS_TIMERS */
 143:Core/Src/freertos.c ****   /* start timers, add new ones, ... */
 144:Core/Src/freertos.c ****   /* USER CODE END RTOS_TIMERS */
 145:Core/Src/freertos.c **** 
 146:Core/Src/freertos.c ****   /* USER CODE BEGIN RTOS_QUEUES */
 147:Core/Src/freertos.c ****   /* add queues, ... */
 148:Core/Src/freertos.c ****   /* USER CODE END RTOS_QUEUES */
 149:Core/Src/freertos.c **** 
 150:Core/Src/freertos.c ****   /* Create the thread(s) */
 151:Core/Src/freertos.c ****   /* creation of MQTT */
 152:Core/Src/freertos.c ****   MQTTHandle = osThreadNew(MQTT_Task, NULL, &MQTT_attributes);
 153:Core/Src/freertos.c **** 
 154:Core/Src/freertos.c ****   /* creation of SENSORs */
 155:Core/Src/freertos.c ****   SENSORsHandle = osThreadNew(Sensor_Task, NULL, &SENSORs_attributes);
 156:Core/Src/freertos.c **** 
 157:Core/Src/freertos.c ****   /* USER CODE BEGIN RTOS_THREADS */
 158:Core/Src/freertos.c ****   /* add threads, ... */
 159:Core/Src/freertos.c ****   /* USER CODE END RTOS_THREADS */
 160:Core/Src/freertos.c **** 
 161:Core/Src/freertos.c ****   /* USER CODE BEGIN RTOS_EVENTS */
 162:Core/Src/freertos.c ****   /* add events, ... */
 163:Core/Src/freertos.c ****   /* USER CODE END RTOS_EVENTS */
ARM GAS  C:\Users\Vento\AppData\Local\Temp\ccHbfWGm.s 			page 6


 164:Core/Src/freertos.c **** 
 165:Core/Src/freertos.c **** }
 166:Core/Src/freertos.c **** 
 167:Core/Src/freertos.c **** /* USER CODE BEGIN Header_MQTT_Task */
 168:Core/Src/freertos.c **** /**
 169:Core/Src/freertos.c ****   * @brief  Function implementing the MQTT thread.
 170:Core/Src/freertos.c ****   * @param  argument: Not used
 171:Core/Src/freertos.c ****   * @retval None
 172:Core/Src/freertos.c ****   */
 173:Core/Src/freertos.c **** /* USER CODE END Header_MQTT_Task */
 174:Core/Src/freertos.c **** void MQTT_Task(void *argument)
 175:Core/Src/freertos.c **** {
  89              		.loc 1 175 1 view -0
  90              		.cfi_startproc
  91              		@ args = 0, pretend = 0, frame = 0
  92              		@ frame_needed = 0, uses_anonymous_args = 0
  93              		.loc 1 175 1 is_stmt 0 view .LVU1
  94 0000 70B5     		push	{r4, r5, r6, lr}
  95              	.LCFI0:
  96              		.cfi_def_cfa_offset 16
  97              		.cfi_offset 4, -16
  98              		.cfi_offset 5, -12
  99              		.cfi_offset 6, -8
 100              		.cfi_offset 14, -4
 176:Core/Src/freertos.c ****   /* USER CODE BEGIN MQTT_Task */
 177:Core/Src/freertos.c **** 
 178:Core/Src/freertos.c ****   SIM800.sim.apn = "m3-world";
 101              		.loc 1 178 3 is_stmt 1 view .LVU2
 102              		.loc 1 178 18 is_stmt 0 view .LVU3
 103 0002 744B     		ldr	r3, .L18
 104 0004 744A     		ldr	r2, .L18+4
 105 0006 1A60     		str	r2, [r3]
 179:Core/Src/freertos.c ****   SIM800.sim.apn_user = "mms";
 106              		.loc 1 179 3 is_stmt 1 view .LVU4
 107              		.loc 1 179 23 is_stmt 0 view .LVU5
 108 0008 744A     		ldr	r2, .L18+8
 109 000a 5A60     		str	r2, [r3, #4]
 180:Core/Src/freertos.c ****   SIM800.sim.apn_pass = "mms";
 110              		.loc 1 180 3 is_stmt 1 view .LVU6
 111              		.loc 1 180 23 is_stmt 0 view .LVU7
 112 000c 9A60     		str	r2, [r3, #8]
 181:Core/Src/freertos.c ****   SIM800.mqttServer.host = "hotrodotquy.vn";
 113              		.loc 1 181 3 is_stmt 1 view .LVU8
 114              		.loc 1 181 26 is_stmt 0 view .LVU9
 115 000e 744A     		ldr	r2, .L18+12
 116 0010 DA60     		str	r2, [r3, #12]
 182:Core/Src/freertos.c ****   SIM800.mqttServer.port = 1883;
 117              		.loc 1 182 3 is_stmt 1 view .LVU10
 118              		.loc 1 182 26 is_stmt 0 view .LVU11
 119 0012 40F25B72 		movw	r2, #1883
 120 0016 1A82     		strh	r2, [r3, #16]	@ movhi
 183:Core/Src/freertos.c ****   SIM800.mqttClient.username = "";
 121              		.loc 1 183 3 is_stmt 1 view .LVU12
 122              		.loc 1 183 30 is_stmt 0 view .LVU13
 123 0018 724A     		ldr	r2, .L18+16
 124 001a 5A61     		str	r2, [r3, #20]
 184:Core/Src/freertos.c ****   SIM800.mqttClient.clientID = "hm";
ARM GAS  C:\Users\Vento\AppData\Local\Temp\ccHbfWGm.s 			page 7


 125              		.loc 1 184 3 is_stmt 1 view .LVU14
 126              		.loc 1 184 30 is_stmt 0 view .LVU15
 127 001c 7249     		ldr	r1, .L18+20
 128 001e D961     		str	r1, [r3, #28]
 185:Core/Src/freertos.c ****   SIM800.mqttClient.pass = "";
 129              		.loc 1 185 3 is_stmt 1 view .LVU16
 130              		.loc 1 185 26 is_stmt 0 view .LVU17
 131 0020 9A61     		str	r2, [r3, #24]
 186:Core/Src/freertos.c ****   SIM800.mqttClient.keepAliveInterval = 120;
 132              		.loc 1 186 3 is_stmt 1 view .LVU18
 133              		.loc 1 186 39 is_stmt 0 view .LVU19
 134 0022 7822     		movs	r2, #120
 135 0024 1A84     		strh	r2, [r3, #32]	@ movhi
 187:Core/Src/freertos.c **** 
 188:Core/Src/freertos.c ****   osDelay(100);
 136              		.loc 1 188 3 is_stmt 1 view .LVU20
 137 0026 6420     		movs	r0, #100
 138              	.LVL1:
 139              		.loc 1 188 3 is_stmt 0 view .LVU21
 140 0028 FFF7FEFF 		bl	osDelay
 141              	.LVL2:
 189:Core/Src/freertos.c **** 
 190:Core/Src/freertos.c ****   if (SIM800_SendCommand("AT\r\n", "\r\n", CMD_DELAY) == SIM_R_nOK)
 142              		.loc 1 190 3 is_stmt 1 view .LVU22
 143              		.loc 1 190 7 is_stmt 0 view .LVU23
 144 002c 4FF4FA62 		mov	r2, #2000
 145 0030 6E49     		ldr	r1, .L18+24
 146 0032 6F48     		ldr	r0, .L18+28
 147 0034 FFF7FEFF 		bl	SIM800_SendCommand
 148              	.LVL3:
 149              		.loc 1 190 6 view .LVU24
 150 0038 0128     		cmp	r0, #1
 151 003a 38D0     		beq	.L12
 152              	.L2:
 191:Core/Src/freertos.c ****   {
 192:Core/Src/freertos.c ****     HAL_GPIO_WritePin(SIM_PWRKEY_GPIO_Port, SIM_PWRKEY_Pin, 1);
 193:Core/Src/freertos.c ****     osDelay(2000);
 194:Core/Src/freertos.c ****     HAL_GPIO_WritePin(SIM_PWRKEY_GPIO_Port, SIM_PWRKEY_Pin, 0);
 195:Core/Src/freertos.c ****   }
 196:Core/Src/freertos.c ****   
 197:Core/Src/freertos.c ****   osDelay(4000);
 153              		.loc 1 197 3 is_stmt 1 view .LVU25
 154 003c 4FF47A60 		mov	r0, #4000
 155 0040 FFF7FEFF 		bl	osDelay
 156              	.LVL4:
 198:Core/Src/freertos.c **** 
 199:Core/Src/freertos.c ****   if (is_MPU_OK == 1)     HAL_IWDG_Refresh(&hiwdg);
 157              		.loc 1 199 3 view .LVU26
 158              		.loc 1 199 17 is_stmt 0 view .LVU27
 159 0044 6B4B     		ldr	r3, .L18+32
 160 0046 1B78     		ldrb	r3, [r3]	@ zero_extendqisi2
 161              		.loc 1 199 6 view .LVU28
 162 0048 012B     		cmp	r3, #1
 163 004a 42D0     		beq	.L13
 164              	.L3:
 200:Core/Src/freertos.c **** 
 201:Core/Src/freertos.c ****   MQTT_Init();
ARM GAS  C:\Users\Vento\AppData\Local\Temp\ccHbfWGm.s 			page 8


 165              		.loc 1 201 3 is_stmt 1 view .LVU29
 166 004c FFF7FEFF 		bl	MQTT_Init
 167              	.LVL5:
 202:Core/Src/freertos.c **** 
 203:Core/Src/freertos.c ****   if (is_MPU_OK == 1)     HAL_IWDG_Refresh(&hiwdg);
 168              		.loc 1 203 3 view .LVU30
 169              		.loc 1 203 17 is_stmt 0 view .LVU31
 170 0050 684B     		ldr	r3, .L18+32
 171 0052 1B78     		ldrb	r3, [r3]	@ zero_extendqisi2
 172              		.loc 1 203 6 view .LVU32
 173 0054 012B     		cmp	r3, #1
 174 0056 40D0     		beq	.L14
 175              	.L4:
 204:Core/Src/freertos.c **** 
 205:Core/Src/freertos.c ****   SIM800_SendCommand("AT+CMGF=1\r\n", "OK\r\n", 1000);
 176              		.loc 1 205 3 is_stmt 1 view .LVU33
 177 0058 674C     		ldr	r4, .L18+36
 178 005a 4FF47A72 		mov	r2, #1000
 179 005e 2146     		mov	r1, r4
 180 0060 6648     		ldr	r0, .L18+40
 181 0062 FFF7FEFF 		bl	SIM800_SendCommand
 182              	.LVL6:
 206:Core/Src/freertos.c **** 
 207:Core/Src/freertos.c ****   SIM800_SendCommand("AT+CFUN=1\r\n", "OK\r\n", 1000);
 183              		.loc 1 207 3 view .LVU34
 184 0066 4FF47A72 		mov	r2, #1000
 185 006a 2146     		mov	r1, r4
 186 006c 6448     		ldr	r0, .L18+44
 187 006e FFF7FEFF 		bl	SIM800_SendCommand
 188              	.LVL7:
 208:Core/Src/freertos.c **** 
 209:Core/Src/freertos.c ****   // SIM800_SendCommand("AT+CUSD=1,\"*101#\"\r\n", "OK\r\n", 5000);
 210:Core/Src/freertos.c **** 
 211:Core/Src/freertos.c ****   // SIM800_SendCommand("AT+CSCS?\r\n", "OK\r\n", 1000);
 212:Core/Src/freertos.c ****   SIM800_SendCommand("AT+CSCS=\"GSM\"\r\n", "OK\r\n", 1000);
 189              		.loc 1 212 3 view .LVU35
 190 0072 4FF47A72 		mov	r2, #1000
 191 0076 2146     		mov	r1, r4
 192 0078 6248     		ldr	r0, .L18+48
 193 007a FFF7FEFF 		bl	SIM800_SendCommand
 194              	.LVL8:
 213:Core/Src/freertos.c ****   // SIM800_SendCommand("AT+CSDH?\r\n", "OK\r\n", 1000);
 214:Core/Src/freertos.c ****   SIM800_SendCommand("AT+CSMP=17,167,0,0\r\n", "OK\r\n", 1000);
 195              		.loc 1 214 3 view .LVU36
 196 007e 4FF47A72 		mov	r2, #1000
 197 0082 2146     		mov	r1, r4
 198 0084 6048     		ldr	r0, .L18+52
 199 0086 FFF7FEFF 		bl	SIM800_SendCommand
 200              	.LVL9:
 215:Core/Src/freertos.c ****   
 216:Core/Src/freertos.c **** 
 217:Core/Src/freertos.c ****   if (is_MPU_OK == 1)     HAL_IWDG_Refresh(&hiwdg);
 201              		.loc 1 217 3 view .LVU37
 202              		.loc 1 217 17 is_stmt 0 view .LVU38
 203 008a 5A4B     		ldr	r3, .L18+32
 204 008c 1B78     		ldrb	r3, [r3]	@ zero_extendqisi2
 205              		.loc 1 217 6 view .LVU39
ARM GAS  C:\Users\Vento\AppData\Local\Temp\ccHbfWGm.s 			page 9


 206 008e 012B     		cmp	r3, #1
 207 0090 27D0     		beq	.L15
 208              	.L5:
 218:Core/Src/freertos.c **** 
 219:Core/Src/freertos.c ****   osTimerStart(SecTimerHandle, 1000);
 209              		.loc 1 219 3 is_stmt 1 view .LVU40
 210 0092 4FF47A71 		mov	r1, #1000
 211 0096 5D4B     		ldr	r3, .L18+56
 212 0098 1868     		ldr	r0, [r3]
 213 009a FFF7FEFF 		bl	osTimerStart
 214              	.LVL10:
 220:Core/Src/freertos.c **** 
 221:Core/Src/freertos.c ****   MQTT_Pub("mandevices/stroke-medical/human/fall", "0");
 215              		.loc 1 221 3 view .LVU41
 216 009e 5C49     		ldr	r1, .L18+60
 217 00a0 5C48     		ldr	r0, .L18+64
 218 00a2 FFF7FEFF 		bl	MQTT_Pub
 219              	.LVL11:
 222:Core/Src/freertos.c ****   uint32_t time = HAL_GetTick();
 220              		.loc 1 222 3 view .LVU42
 221              		.loc 1 222 19 is_stmt 0 view .LVU43
 222 00a6 FFF7FEFF 		bl	HAL_GetTick
 223              	.LVL12:
 224 00aa 0446     		mov	r4, r0
 225              	.LVL13:
 226              		.loc 1 222 19 view .LVU44
 227 00ac 72E0     		b	.L6
 228              	.LVL14:
 229              	.L12:
 192:Core/Src/freertos.c ****     osDelay(2000);
 230              		.loc 1 192 5 is_stmt 1 view .LVU45
 231 00ae 5A4C     		ldr	r4, .L18+68
 232 00b0 0122     		movs	r2, #1
 233 00b2 4FF48071 		mov	r1, #256
 234 00b6 2046     		mov	r0, r4
 235 00b8 FFF7FEFF 		bl	HAL_GPIO_WritePin
 236              	.LVL15:
 193:Core/Src/freertos.c ****     HAL_GPIO_WritePin(SIM_PWRKEY_GPIO_Port, SIM_PWRKEY_Pin, 0);
 237              		.loc 1 193 5 view .LVU46
 238 00bc 4FF4FA60 		mov	r0, #2000
 239 00c0 FFF7FEFF 		bl	osDelay
 240              	.LVL16:
 194:Core/Src/freertos.c ****   }
 241              		.loc 1 194 5 view .LVU47
 242 00c4 0022     		movs	r2, #0
 243 00c6 4FF48071 		mov	r1, #256
 244 00ca 2046     		mov	r0, r4
 245 00cc FFF7FEFF 		bl	HAL_GPIO_WritePin
 246              	.LVL17:
 247 00d0 B4E7     		b	.L2
 248              	.L13:
 199:Core/Src/freertos.c **** 
 249              		.loc 1 199 27 discriminator 1 view .LVU48
 250 00d2 5248     		ldr	r0, .L18+72
 251 00d4 FFF7FEFF 		bl	HAL_IWDG_Refresh
 252              	.LVL18:
 253 00d8 B8E7     		b	.L3
ARM GAS  C:\Users\Vento\AppData\Local\Temp\ccHbfWGm.s 			page 10


 254              	.L14:
 203:Core/Src/freertos.c **** 
 255              		.loc 1 203 27 discriminator 1 view .LVU49
 256 00da 5048     		ldr	r0, .L18+72
 257 00dc FFF7FEFF 		bl	HAL_IWDG_Refresh
 258              	.LVL19:
 259 00e0 BAE7     		b	.L4
 260              	.L15:
 217:Core/Src/freertos.c **** 
 261              		.loc 1 217 27 discriminator 1 view .LVU50
 262 00e2 4E48     		ldr	r0, .L18+72
 263 00e4 FFF7FEFF 		bl	HAL_IWDG_Refresh
 264              	.LVL20:
 265 00e8 D3E7     		b	.L5
 266              	.LVL21:
 267              	.L16:
 223:Core/Src/freertos.c **** 
 224:Core/Src/freertos.c ****   /* Infinite loop */
 225:Core/Src/freertos.c ****   for(;;)
 226:Core/Src/freertos.c ****   {
 227:Core/Src/freertos.c ****     osDelay(1000);
 228:Core/Src/freertos.c ****     if (is_fall == 1)
 229:Core/Src/freertos.c ****     {
 230:Core/Src/freertos.c ****       if (SIM800_SendCommand("AT+CMGS=\"0855484556\"\r\n", ">", 1000) == SIM_R_OK)
 268              		.loc 1 230 7 view .LVU51
 269              		.loc 1 230 11 is_stmt 0 view .LVU52
 270 00ea 4FF47A72 		mov	r2, #1000
 271 00ee 4C49     		ldr	r1, .L18+76
 272 00f0 4C48     		ldr	r0, .L18+80
 273 00f2 FFF7FEFF 		bl	SIM800_SendCommand
 274              	.LVL22:
 275              		.loc 1 230 10 view .LVU53
 276 00f6 0028     		cmp	r0, #0
 277 00f8 54D1     		bne	.L7
 231:Core/Src/freertos.c ****       {
 232:Core/Src/freertos.c ****         osDelay(200);
 278              		.loc 1 232 9 is_stmt 1 view .LVU54
 279 00fa C820     		movs	r0, #200
 280 00fc FFF7FEFF 		bl	osDelay
 281              	.LVL23:
 233:Core/Src/freertos.c ****         HAL_UART_Transmit_IT(UART_SIM800, (uint8_t *)SMSStrg, (uint16_t)strlen(SMSStrg));
 282              		.loc 1 233 9 view .LVU55
 283              		.loc 1 233 73 is_stmt 0 view .LVU56
 284 0100 494E     		ldr	r6, .L18+84
 285 0102 3046     		mov	r0, r6
 286 0104 FFF7FEFF 		bl	strlen
 287              	.LVL24:
 288              		.loc 1 233 9 view .LVU57
 289 0108 484D     		ldr	r5, .L18+88
 290 010a 82B2     		uxth	r2, r0
 291 010c 3146     		mov	r1, r6
 292 010e 2846     		mov	r0, r5
 293 0110 FFF7FEFF 		bl	HAL_UART_Transmit_IT
 294              	.LVL25:
 234:Core/Src/freertos.c ****         osDelay(200);
 295              		.loc 1 234 9 is_stmt 1 view .LVU58
 296 0114 C820     		movs	r0, #200
ARM GAS  C:\Users\Vento\AppData\Local\Temp\ccHbfWGm.s 			page 11


 297 0116 FFF7FEFF 		bl	osDelay
 298              	.LVL26:
 235:Core/Src/freertos.c ****         huart1.Instance->DR = 0b00011010;
 299              		.loc 1 235 9 view .LVU59
 300              		.loc 1 235 15 is_stmt 0 view .LVU60
 301 011a 2B68     		ldr	r3, [r5]
 302              		.loc 1 235 29 view .LVU61
 303 011c 1A22     		movs	r2, #26
 304 011e 5A60     		str	r2, [r3, #4]
 236:Core/Src/freertos.c ****         osDelay(5000);
 305              		.loc 1 236 9 is_stmt 1 view .LVU62
 306 0120 41F28830 		movw	r0, #5000
 307 0124 FFF7FEFF 		bl	osDelay
 308              	.LVL27:
 237:Core/Src/freertos.c ****         MQTT_Pub("mandevices/stroke-medical/human/fall", "1");
 309              		.loc 1 237 9 view .LVU63
 310 0128 4149     		ldr	r1, .L18+92
 311 012a 3A48     		ldr	r0, .L18+64
 312 012c FFF7FEFF 		bl	MQTT_Pub
 313              	.LVL28:
 238:Core/Src/freertos.c ****         osDelay(2000);
 314              		.loc 1 238 9 view .LVU64
 315 0130 4FF4FA60 		mov	r0, #2000
 316 0134 FFF7FEFF 		bl	osDelay
 317              	.LVL29:
 239:Core/Src/freertos.c ****         MQTT_Pub("mandevices/stroke-medical/human/fall/loc", Loc);
 318              		.loc 1 239 9 view .LVU65
 319 0138 3E49     		ldr	r1, .L18+96
 320 013a 3F48     		ldr	r0, .L18+100
 321 013c FFF7FEFF 		bl	MQTT_Pub
 322              	.LVL30:
 240:Core/Src/freertos.c ****         osDelay(2000);
 323              		.loc 1 240 9 view .LVU66
 324 0140 4FF4FA60 		mov	r0, #2000
 325 0144 FFF7FEFF 		bl	osDelay
 326              	.LVL31:
 241:Core/Src/freertos.c ****         // HAL_UART_Transmit_IT(UART_SIM800, call, strlen(call));
 242:Core/Src/freertos.c ****         SIM800_SendCommand("ATD0855484556;\r\n", "OK\r\n", 2000);
 327              		.loc 1 242 9 view .LVU67
 328 0148 2B4D     		ldr	r5, .L18+36
 329 014a 4FF4FA62 		mov	r2, #2000
 330 014e 2946     		mov	r1, r5
 331 0150 3A48     		ldr	r0, .L18+104
 332 0152 FFF7FEFF 		bl	SIM800_SendCommand
 333              	.LVL32:
 243:Core/Src/freertos.c ****         
 244:Core/Src/freertos.c ****         osDelay(30000);
 334              		.loc 1 244 9 view .LVU68
 335 0156 47F23050 		movw	r0, #30000
 336 015a FFF7FEFF 		bl	osDelay
 337              	.LVL33:
 245:Core/Src/freertos.c ****         SIM800_SendCommand("ATH\r\n", "OK\r\n", 1000);
 338              		.loc 1 245 9 view .LVU69
 339 015e 4FF47A72 		mov	r2, #1000
 340 0162 2946     		mov	r1, r5
 341 0164 3648     		ldr	r0, .L18+108
 342 0166 FFF7FEFF 		bl	SIM800_SendCommand
ARM GAS  C:\Users\Vento\AppData\Local\Temp\ccHbfWGm.s 			page 12


 343              	.LVL34:
 246:Core/Src/freertos.c ****         is_fall = 0;
 344              		.loc 1 246 9 view .LVU70
 345              		.loc 1 246 17 is_stmt 0 view .LVU71
 346 016a 364B     		ldr	r3, .L18+112
 347 016c 0022     		movs	r2, #0
 348 016e 1A70     		strb	r2, [r3]
 349 0170 18E0     		b	.L7
 350              	.L17:
 247:Core/Src/freertos.c ****       }
 248:Core/Src/freertos.c ****     }
 249:Core/Src/freertos.c ****     if ((HAL_GetTick() - time) >= 30000)
 250:Core/Src/freertos.c ****     {
 251:Core/Src/freertos.c ****       MQTT_Pub("mandevices/stroke-medical/human/fall", "0");
 351              		.loc 1 251 7 is_stmt 1 view .LVU72
 352 0172 2749     		ldr	r1, .L18+60
 353 0174 2748     		ldr	r0, .L18+64
 354 0176 FFF7FEFF 		bl	MQTT_Pub
 355              	.LVL35:
 252:Core/Src/freertos.c ****       time = HAL_GetTick();
 356              		.loc 1 252 7 view .LVU73
 357              		.loc 1 252 14 is_stmt 0 view .LVU74
 358 017a FFF7FEFF 		bl	HAL_GetTick
 359              	.LVL36:
 360 017e 0446     		mov	r4, r0
 361              	.LVL37:
 362              		.loc 1 252 14 view .LVU75
 363 0180 17E0     		b	.L8
 364              	.LVL38:
 365              	.L9:
 253:Core/Src/freertos.c ****     }
 254:Core/Src/freertos.c ****     if((SIM800.mqttServer.connect == 0) || (SIM800_Status.SIM == 0) || (SIM800_Status.GPRS == 0) ||
 255:Core/Src/freertos.c ****     {
 256:Core/Src/freertos.c ****       MQTT_Init();
 366              		.loc 1 256 7 is_stmt 1 view .LVU76
 367 0182 FFF7FEFF 		bl	MQTT_Init
 368              	.LVL39:
 257:Core/Src/freertos.c ****       MQTT_Pub("mandevices/stroke-medical/human/fall", "0");
 369              		.loc 1 257 7 view .LVU77
 370 0186 2249     		ldr	r1, .L18+60
 371 0188 2248     		ldr	r0, .L18+64
 372 018a FFF7FEFF 		bl	MQTT_Pub
 373              	.LVL40:
 258:Core/Src/freertos.c ****       time = HAL_GetTick();
 374              		.loc 1 258 7 view .LVU78
 375              		.loc 1 258 14 is_stmt 0 view .LVU79
 376 018e FFF7FEFF 		bl	HAL_GetTick
 377              	.LVL41:
 378 0192 0446     		mov	r4, r0
 379              	.LVL42:
 380              	.L6:
 225:Core/Src/freertos.c ****   {
 381              		.loc 1 225 3 is_stmt 1 view .LVU80
 227:Core/Src/freertos.c ****     if (is_fall == 1)
 382              		.loc 1 227 5 view .LVU81
 383 0194 4FF47A70 		mov	r0, #1000
 384 0198 FFF7FEFF 		bl	osDelay
ARM GAS  C:\Users\Vento\AppData\Local\Temp\ccHbfWGm.s 			page 13


 385              	.LVL43:
 228:Core/Src/freertos.c ****     {
 386              		.loc 1 228 5 view .LVU82
 228:Core/Src/freertos.c ****     {
 387              		.loc 1 228 17 is_stmt 0 view .LVU83
 388 019c 294B     		ldr	r3, .L18+112
 389 019e 1B78     		ldrb	r3, [r3]	@ zero_extendqisi2
 228:Core/Src/freertos.c ****     {
 390              		.loc 1 228 8 view .LVU84
 391 01a0 012B     		cmp	r3, #1
 392 01a2 A2D0     		beq	.L16
 393              	.L7:
 249:Core/Src/freertos.c ****     {
 394              		.loc 1 249 5 is_stmt 1 view .LVU85
 249:Core/Src/freertos.c ****     {
 395              		.loc 1 249 10 is_stmt 0 view .LVU86
 396 01a4 FFF7FEFF 		bl	HAL_GetTick
 397              	.LVL44:
 249:Core/Src/freertos.c ****     {
 398              		.loc 1 249 24 view .LVU87
 399 01a8 001B     		subs	r0, r0, r4
 249:Core/Src/freertos.c ****     {
 400              		.loc 1 249 8 view .LVU88
 401 01aa 47F22F53 		movw	r3, #29999
 402 01ae 9842     		cmp	r0, r3
 403 01b0 DFD8     		bhi	.L17
 404              	.L8:
 254:Core/Src/freertos.c ****     {
 405              		.loc 1 254 5 is_stmt 1 view .LVU89
 254:Core/Src/freertos.c ****     {
 406              		.loc 1 254 26 is_stmt 0 view .LVU90
 407 01b2 084B     		ldr	r3, .L18
 408 01b4 9B7C     		ldrb	r3, [r3, #18]	@ zero_extendqisi2
 254:Core/Src/freertos.c ****     {
 409              		.loc 1 254 7 view .LVU91
 410 01b6 002B     		cmp	r3, #0
 411 01b8 E3D0     		beq	.L9
 254:Core/Src/freertos.c ****     {
 412              		.loc 1 254 58 discriminator 1 view .LVU92
 413 01ba 234B     		ldr	r3, .L18+116
 414 01bc 1B78     		ldrb	r3, [r3]	@ zero_extendqisi2
 254:Core/Src/freertos.c ****     {
 415              		.loc 1 254 41 discriminator 1 view .LVU93
 416 01be 002B     		cmp	r3, #0
 417 01c0 DFD0     		beq	.L9
 254:Core/Src/freertos.c ****     {
 418              		.loc 1 254 86 discriminator 2 view .LVU94
 419 01c2 214B     		ldr	r3, .L18+116
 420 01c4 5B78     		ldrb	r3, [r3, #1]	@ zero_extendqisi2
 254:Core/Src/freertos.c ****     {
 421              		.loc 1 254 69 discriminator 2 view .LVU95
 422 01c6 002B     		cmp	r3, #0
 423 01c8 DBD0     		beq	.L9
 254:Core/Src/freertos.c ****     {
 424              		.loc 1 254 115 discriminator 3 view .LVU96
 425 01ca 1F4B     		ldr	r3, .L18+116
 426 01cc 9B78     		ldrb	r3, [r3, #2]	@ zero_extendqisi2
ARM GAS  C:\Users\Vento\AppData\Local\Temp\ccHbfWGm.s 			page 14


 254:Core/Src/freertos.c ****     {
 427              		.loc 1 254 98 discriminator 3 view .LVU97
 428 01ce 002B     		cmp	r3, #0
 429 01d0 E0D1     		bne	.L6
 430 01d2 D6E7     		b	.L9
 431              	.L19:
 432              		.align	2
 433              	.L18:
 434 01d4 00000000 		.word	SIM800
 435 01d8 00000000 		.word	.LC0
 436 01dc 0C000000 		.word	.LC1
 437 01e0 10000000 		.word	.LC2
 438 01e4 20000000 		.word	.LC3
 439 01e8 24000000 		.word	.LC4
 440 01ec 28000000 		.word	.LC5
 441 01f0 2C000000 		.word	.LC6
 442 01f4 00000000 		.word	.LANCHOR0
 443 01f8 34000000 		.word	.LC7
 444 01fc 3C000000 		.word	.LC8
 445 0200 48000000 		.word	.LC9
 446 0204 54000000 		.word	.LC10
 447 0208 64000000 		.word	.LC11
 448 020c 00000000 		.word	.LANCHOR1
 449 0210 7C000000 		.word	.LC12
 450 0214 80000000 		.word	.LC13
 451 0218 00080140 		.word	1073809408
 452 021c 00000000 		.word	hiwdg
 453 0220 A8000000 		.word	.LC14
 454 0224 AC000000 		.word	.LC15
 455 0228 00000000 		.word	.LANCHOR3
 456 022c 00000000 		.word	huart1
 457 0230 C4000000 		.word	.LC16
 458 0234 00000000 		.word	.LANCHOR4
 459 0238 C8000000 		.word	.LC17
 460 023c F4000000 		.word	.LC18
 461 0240 08010000 		.word	.LC19
 462 0244 00000000 		.word	.LANCHOR2
 463 0248 00000000 		.word	SIM800_Status
 464              		.cfi_endproc
 465              	.LFE70:
 467              		.global	__aeabi_dmul
 468              		.global	__aeabi_dadd
 469              		.global	__aeabi_d2f
 470              		.global	__aeabi_f2d
 471              		.global	__aeabi_dcmplt
 472              		.global	__aeabi_fcmpeq
 473              		.section	.text.Sensor_Task,"ax",%progbits
 474              		.align	1
 475              		.global	Sensor_Task
 476              		.syntax unified
 477              		.thumb
 478              		.thumb_func
 479              		.fpu softvfp
 481              	Sensor_Task:
 482              	.LFB71:
 259:Core/Src/freertos.c ****     }
 260:Core/Src/freertos.c ****     // 84914812925
ARM GAS  C:\Users\Vento\AppData\Local\Temp\ccHbfWGm.s 			page 15


 261:Core/Src/freertos.c ****     // 84816056426
 262:Core/Src/freertos.c ****     // SIM800_SendCommand("AT+CGPSINF=0\r\n", "OK\r\n", 10000);
 263:Core/Src/freertos.c ****     // HAL_GPIO_TogglePin(LED_GPIO_Port, LED_Pin);
 264:Core/Src/freertos.c ****   }
 265:Core/Src/freertos.c ****   /* USER CODE END MQTT_Task */
 266:Core/Src/freertos.c **** }
 267:Core/Src/freertos.c **** 
 268:Core/Src/freertos.c **** /* USER CODE BEGIN Header_Sensor_Task */
 269:Core/Src/freertos.c **** /**
 270:Core/Src/freertos.c **** * @brief Function implementing the SENSORs thread.
 271:Core/Src/freertos.c **** * @param argument: Not used
 272:Core/Src/freertos.c **** * @retval None
 273:Core/Src/freertos.c **** */
 274:Core/Src/freertos.c **** /* USER CODE END Header_Sensor_Task */
 275:Core/Src/freertos.c **** void Sensor_Task(void *argument)
 276:Core/Src/freertos.c **** {
 483              		.loc 1 276 1 is_stmt 1 view -0
 484              		.cfi_startproc
 485              		@ Volatile: function does not return.
 486              		@ args = 0, pretend = 0, frame = 0
 487              		@ frame_needed = 0, uses_anonymous_args = 0
 488              	.LVL45:
 489              		.loc 1 276 1 is_stmt 0 view .LVU99
 490 0000 80B5     		push	{r7, lr}
 491              	.LCFI1:
 492              		.cfi_def_cfa_offset 8
 493              		.cfi_offset 7, -8
 494              		.cfi_offset 14, -4
 495              	.LVL46:
 496              	.L21:
 277:Core/Src/freertos.c ****   /* USER CODE BEGIN Sensor_Task */
 278:Core/Src/freertos.c **** 
 279:Core/Src/freertos.c ****   while(MPU6050_Init(&hi2c1) == MPU_nOK);
 497              		.loc 1 279 41 is_stmt 1 discriminator 1 view .LVU100
 498              		.loc 1 279 8 discriminator 1 view .LVU101
 499              		.loc 1 279 9 is_stmt 0 discriminator 1 view .LVU102
 500 0002 2D48     		ldr	r0, .L29+8
 501 0004 FFF7FEFF 		bl	MPU6050_Init
 502              	.LVL47:
 503              		.loc 1 279 8 discriminator 1 view .LVU103
 504 0008 0128     		cmp	r0, #1
 505 000a FAD0     		beq	.L21
 280:Core/Src/freertos.c ****   // osTimerStart(SecTimerHandle, 1000);
 281:Core/Src/freertos.c ****   is_MPU_OK = 1;
 506              		.loc 1 281 3 is_stmt 1 view .LVU104
 507              		.loc 1 281 13 is_stmt 0 view .LVU105
 508 000c 2B4B     		ldr	r3, .L29+12
 509 000e 0122     		movs	r2, #1
 510 0010 1A70     		strb	r2, [r3]
 511 0012 05E0     		b	.L25
 512              	.L22:
 282:Core/Src/freertos.c **** 
 283:Core/Src/freertos.c ****   /* Infinite loop */
 284:Core/Src/freertos.c ****   for(;;)
 285:Core/Src/freertos.c ****   {
 286:Core/Src/freertos.c ****     MPU6050_Read_Accel(&hi2c1, &MPU6050);
 287:Core/Src/freertos.c **** 
ARM GAS  C:\Users\Vento\AppData\Local\Temp\ccHbfWGm.s 			page 16


 288:Core/Src/freertos.c ****     gGravity = sqrt((MPU6050.Ax)*(MPU6050.Ax) + (MPU6050.Ay)*(MPU6050.Ay) + (MPU6050.Az)*(MPU6050.A
 289:Core/Src/freertos.c **** 
 290:Core/Src/freertos.c ****     if ((gGravity < 0.10) && (is_fall == 0) && (gGravity != 0))
 291:Core/Src/freertos.c ****     {
 292:Core/Src/freertos.c ****       is_fall = 1;
 293:Core/Src/freertos.c ****       // vTaskResume(MQTTHandle);
 294:Core/Src/freertos.c ****     }
 295:Core/Src/freertos.c ****     HAL_IWDG_Refresh(&hiwdg);
 513              		.loc 1 295 5 is_stmt 1 view .LVU106
 514 0014 2A48     		ldr	r0, .L29+16
 515 0016 FFF7FEFF 		bl	HAL_IWDG_Refresh
 516              	.LVL48:
 296:Core/Src/freertos.c ****     osDelay(10);
 517              		.loc 1 296 5 view .LVU107
 518 001a 0A20     		movs	r0, #10
 519 001c FFF7FEFF 		bl	osDelay
 520              	.LVL49:
 284:Core/Src/freertos.c ****   {
 521              		.loc 1 284 8 view .LVU108
 522              	.L25:
 284:Core/Src/freertos.c ****   {
 523              		.loc 1 284 3 view .LVU109
 286:Core/Src/freertos.c **** 
 524              		.loc 1 286 5 view .LVU110
 525 0020 284C     		ldr	r4, .L29+20
 526 0022 2146     		mov	r1, r4
 527 0024 2448     		ldr	r0, .L29+8
 528 0026 FFF7FEFF 		bl	MPU6050_Read_Accel
 529              	.LVL50:
 288:Core/Src/freertos.c **** 
 530              		.loc 1 288 5 view .LVU111
 288:Core/Src/freertos.c **** 
 531              		.loc 1 288 29 is_stmt 0 view .LVU112
 532 002a D4E90201 		ldrd	r0, [r4, #8]
 288:Core/Src/freertos.c **** 
 533              		.loc 1 288 33 view .LVU113
 534 002e 0246     		mov	r2, r0
 535 0030 0B46     		mov	r3, r1
 536 0032 FFF7FEFF 		bl	__aeabi_dmul
 537              	.LVL51:
 538 0036 0646     		mov	r6, r0
 539 0038 0F46     		mov	r7, r1
 288:Core/Src/freertos.c **** 
 540              		.loc 1 288 57 view .LVU114
 541 003a D4E90401 		ldrd	r0, [r4, #16]
 288:Core/Src/freertos.c **** 
 542              		.loc 1 288 61 view .LVU115
 543 003e 0246     		mov	r2, r0
 544 0040 0B46     		mov	r3, r1
 545 0042 FFF7FEFF 		bl	__aeabi_dmul
 546              	.LVL52:
 547 0046 0246     		mov	r2, r0
 548 0048 0B46     		mov	r3, r1
 288:Core/Src/freertos.c **** 
 549              		.loc 1 288 47 view .LVU116
 550 004a 3046     		mov	r0, r6
 551 004c 3946     		mov	r1, r7
ARM GAS  C:\Users\Vento\AppData\Local\Temp\ccHbfWGm.s 			page 17


 552 004e FFF7FEFF 		bl	__aeabi_dadd
 553              	.LVL53:
 554 0052 0646     		mov	r6, r0
 555 0054 0F46     		mov	r7, r1
 288:Core/Src/freertos.c **** 
 556              		.loc 1 288 85 view .LVU117
 557 0056 D4E90601 		ldrd	r0, [r4, #24]
 288:Core/Src/freertos.c **** 
 558              		.loc 1 288 89 view .LVU118
 559 005a 0246     		mov	r2, r0
 560 005c 0B46     		mov	r3, r1
 561 005e FFF7FEFF 		bl	__aeabi_dmul
 562              	.LVL54:
 563 0062 0246     		mov	r2, r0
 564 0064 0B46     		mov	r3, r1
 288:Core/Src/freertos.c **** 
 565              		.loc 1 288 16 view .LVU119
 566 0066 3046     		mov	r0, r6
 567 0068 3946     		mov	r1, r7
 568 006a FFF7FEFF 		bl	__aeabi_dadd
 569              	.LVL55:
 570 006e FFF7FEFF 		bl	sqrt
 571              	.LVL56:
 572 0072 FFF7FEFF 		bl	__aeabi_d2f
 573              	.LVL57:
 574 0076 0446     		mov	r4, r0
 288:Core/Src/freertos.c **** 
 575              		.loc 1 288 14 view .LVU120
 576 0078 134B     		ldr	r3, .L29+24
 577 007a 1860     		str	r0, [r3]	@ float
 290:Core/Src/freertos.c ****     {
 578              		.loc 1 290 5 is_stmt 1 view .LVU121
 290:Core/Src/freertos.c ****     {
 579              		.loc 1 290 19 is_stmt 0 view .LVU122
 580 007c FFF7FEFF 		bl	__aeabi_f2d
 581              	.LVL58:
 290:Core/Src/freertos.c ****     {
 582              		.loc 1 290 8 view .LVU123
 583 0080 0BA3     		adr	r3, .L29
 584 0082 D3E90023 		ldrd	r2, [r3]
 585 0086 FFF7FEFF 		bl	__aeabi_dcmplt
 586              	.LVL59:
 587 008a 0028     		cmp	r0, #0
 588 008c C2D0     		beq	.L22
 290:Core/Src/freertos.c ****     {
 589              		.loc 1 290 39 discriminator 1 view .LVU124
 590 008e 0F4B     		ldr	r3, .L29+28
 591 0090 1B78     		ldrb	r3, [r3]	@ zero_extendqisi2
 290:Core/Src/freertos.c ****     {
 592              		.loc 1 290 27 discriminator 1 view .LVU125
 593 0092 002B     		cmp	r3, #0
 594 0094 BED1     		bne	.L22
 290:Core/Src/freertos.c ****     {
 595              		.loc 1 290 45 discriminator 2 view .LVU126
 596 0096 0021     		movs	r1, #0
 597 0098 2046     		mov	r0, r4
 598 009a FFF7FEFF 		bl	__aeabi_fcmpeq
ARM GAS  C:\Users\Vento\AppData\Local\Temp\ccHbfWGm.s 			page 18


 599              	.LVL60:
 600 009e 0028     		cmp	r0, #0
 601 00a0 B8D1     		bne	.L22
 292:Core/Src/freertos.c ****       // vTaskResume(MQTTHandle);
 602              		.loc 1 292 7 is_stmt 1 view .LVU127
 292:Core/Src/freertos.c ****       // vTaskResume(MQTTHandle);
 603              		.loc 1 292 15 is_stmt 0 view .LVU128
 604 00a2 0A4B     		ldr	r3, .L29+28
 605 00a4 0122     		movs	r2, #1
 606 00a6 1A70     		strb	r2, [r3]
 607 00a8 B4E7     		b	.L22
 608              	.L30:
 609 00aa 00BFAFF3 		.align	3
 609      0080
 610              	.L29:
 611 00b0 9A999999 		.word	-1717986918
 612 00b4 9999B93F 		.word	1069128089
 613 00b8 00000000 		.word	hi2c1
 614 00bc 00000000 		.word	.LANCHOR0
 615 00c0 00000000 		.word	hiwdg
 616 00c4 00000000 		.word	.LANCHOR5
 617 00c8 00000000 		.word	.LANCHOR6
 618 00cc 00000000 		.word	.LANCHOR2
 619              		.cfi_endproc
 620              	.LFE71:
 622              		.section	.text.Callback01,"ax",%progbits
 623              		.align	1
 624              		.global	Callback01
 625              		.syntax unified
 626              		.thumb
 627              		.thumb_func
 628              		.fpu softvfp
 630              	Callback01:
 631              	.LVL61:
 632              	.LFB72:
 297:Core/Src/freertos.c ****   }
 298:Core/Src/freertos.c ****   /* USER CODE END Sensor_Task */
 299:Core/Src/freertos.c **** }
 300:Core/Src/freertos.c **** 
 301:Core/Src/freertos.c **** /* Callback01 function */
 302:Core/Src/freertos.c **** void Callback01(void *argument)
 303:Core/Src/freertos.c **** {
 633              		.loc 1 303 1 is_stmt 1 view -0
 634              		.cfi_startproc
 635              		@ args = 0, pretend = 0, frame = 0
 636              		@ frame_needed = 0, uses_anonymous_args = 0
 637              		.loc 1 303 1 is_stmt 0 view .LVU130
 638 0000 08B5     		push	{r3, lr}
 639              	.LCFI2:
 640              		.cfi_def_cfa_offset 8
 641              		.cfi_offset 3, -8
 642              		.cfi_offset 14, -4
 304:Core/Src/freertos.c ****   /* USER CODE BEGIN Callback01 */
 305:Core/Src/freertos.c ****   if (is_MPU_OK == 1)     HAL_IWDG_Refresh(&hiwdg);
 643              		.loc 1 305 3 is_stmt 1 view .LVU131
 644              		.loc 1 305 17 is_stmt 0 view .LVU132
 645 0002 074B     		ldr	r3, .L35
ARM GAS  C:\Users\Vento\AppData\Local\Temp\ccHbfWGm.s 			page 19


 646 0004 1B78     		ldrb	r3, [r3]	@ zero_extendqisi2
 647              		.loc 1 305 6 view .LVU133
 648 0006 012B     		cmp	r3, #1
 649 0008 05D0     		beq	.L34
 650              	.LVL62:
 651              	.L32:
 306:Core/Src/freertos.c ****   HAL_GPIO_TogglePin(LED_GPIO_Port, LED_Pin);
 652              		.loc 1 306 3 is_stmt 1 view .LVU134
 653 000a 4FF40051 		mov	r1, #8192
 654 000e 0548     		ldr	r0, .L35+4
 655 0010 FFF7FEFF 		bl	HAL_GPIO_TogglePin
 656              	.LVL63:
 307:Core/Src/freertos.c ****   /* USER CODE END Callback01 */
 308:Core/Src/freertos.c **** }
 657              		.loc 1 308 1 is_stmt 0 view .LVU135
 658 0014 08BD     		pop	{r3, pc}
 659              	.LVL64:
 660              	.L34:
 305:Core/Src/freertos.c ****   HAL_GPIO_TogglePin(LED_GPIO_Port, LED_Pin);
 661              		.loc 1 305 27 is_stmt 1 discriminator 1 view .LVU136
 662 0016 0448     		ldr	r0, .L35+8
 663              	.LVL65:
 305:Core/Src/freertos.c ****   HAL_GPIO_TogglePin(LED_GPIO_Port, LED_Pin);
 664              		.loc 1 305 27 is_stmt 0 discriminator 1 view .LVU137
 665 0018 FFF7FEFF 		bl	HAL_IWDG_Refresh
 666              	.LVL66:
 667 001c F5E7     		b	.L32
 668              	.L36:
 669 001e 00BF     		.align	2
 670              	.L35:
 671 0020 00000000 		.word	.LANCHOR0
 672 0024 00100140 		.word	1073811456
 673 0028 00000000 		.word	hiwdg
 674              		.cfi_endproc
 675              	.LFE72:
 677              		.section	.text.MX_FREERTOS_Init,"ax",%progbits
 678              		.align	1
 679              		.global	MX_FREERTOS_Init
 680              		.syntax unified
 681              		.thumb
 682              		.thumb_func
 683              		.fpu softvfp
 685              	MX_FREERTOS_Init:
 686              	.LFB69:
 125:Core/Src/freertos.c ****   /* USER CODE BEGIN Init */
 687              		.loc 1 125 29 is_stmt 1 view -0
 688              		.cfi_startproc
 689              		@ args = 0, pretend = 0, frame = 0
 690              		@ frame_needed = 0, uses_anonymous_args = 0
 691 0000 08B5     		push	{r3, lr}
 692              	.LCFI3:
 693              		.cfi_def_cfa_offset 8
 694              		.cfi_offset 3, -8
 695              		.cfi_offset 14, -4
 140:Core/Src/freertos.c **** 
 696              		.loc 1 140 3 view .LVU139
 140:Core/Src/freertos.c **** 
ARM GAS  C:\Users\Vento\AppData\Local\Temp\ccHbfWGm.s 			page 20


 697              		.loc 1 140 20 is_stmt 0 view .LVU140
 698 0002 0B4B     		ldr	r3, .L39
 699 0004 0022     		movs	r2, #0
 700 0006 0121     		movs	r1, #1
 701 0008 0A48     		ldr	r0, .L39+4
 702 000a FFF7FEFF 		bl	osTimerNew
 703              	.LVL67:
 140:Core/Src/freertos.c **** 
 704              		.loc 1 140 18 view .LVU141
 705 000e 0A4B     		ldr	r3, .L39+8
 706 0010 1860     		str	r0, [r3]
 152:Core/Src/freertos.c **** 
 707              		.loc 1 152 3 is_stmt 1 view .LVU142
 152:Core/Src/freertos.c **** 
 708              		.loc 1 152 16 is_stmt 0 view .LVU143
 709 0012 0A4A     		ldr	r2, .L39+12
 710 0014 0021     		movs	r1, #0
 711 0016 0A48     		ldr	r0, .L39+16
 712 0018 FFF7FEFF 		bl	osThreadNew
 713              	.LVL68:
 152:Core/Src/freertos.c **** 
 714              		.loc 1 152 14 view .LVU144
 715 001c 094B     		ldr	r3, .L39+20
 716 001e 1860     		str	r0, [r3]
 155:Core/Src/freertos.c **** 
 717              		.loc 1 155 3 is_stmt 1 view .LVU145
 155:Core/Src/freertos.c **** 
 718              		.loc 1 155 19 is_stmt 0 view .LVU146
 719 0020 094A     		ldr	r2, .L39+24
 720 0022 0021     		movs	r1, #0
 721 0024 0948     		ldr	r0, .L39+28
 722 0026 FFF7FEFF 		bl	osThreadNew
 723              	.LVL69:
 155:Core/Src/freertos.c **** 
 724              		.loc 1 155 17 view .LVU147
 725 002a 094B     		ldr	r3, .L39+32
 726 002c 1860     		str	r0, [r3]
 165:Core/Src/freertos.c **** 
 727              		.loc 1 165 1 view .LVU148
 728 002e 08BD     		pop	{r3, pc}
 729              	.L40:
 730              		.align	2
 731              	.L39:
 732 0030 00000000 		.word	.LANCHOR7
 733 0034 00000000 		.word	Callback01
 734 0038 00000000 		.word	.LANCHOR1
 735 003c 00000000 		.word	.LANCHOR8
 736 0040 00000000 		.word	MQTT_Task
 737 0044 00000000 		.word	.LANCHOR9
 738 0048 00000000 		.word	.LANCHOR10
 739 004c 00000000 		.word	Sensor_Task
 740 0050 00000000 		.word	.LANCHOR11
 741              		.cfi_endproc
 742              	.LFE69:
 744              		.global	SecTimer_attributes
 745              		.section	.rodata.str1.4,"aMS",%progbits,1
 746              		.align	2
ARM GAS  C:\Users\Vento\AppData\Local\Temp\ccHbfWGm.s 			page 21


 747              	.LC20:
 748 0000 53656354 		.ascii	"SecTimer\000"
 748      696D6572 
 748      00
 749              		.global	SecTimerHandle
 750              		.global	SENSORs_attributes
 751 0009 000000   		.align	2
 752              	.LC21:
 753 000c 53454E53 		.ascii	"SENSORs\000"
 753      4F527300 
 754              		.global	SENSORsHandle
 755              		.global	MQTT_attributes
 756              		.align	2
 757              	.LC22:
 758 0014 4D515454 		.ascii	"MQTT\000"
 758      00
 759              		.global	MQTTHandle
 760              		.global	Loc
 761              		.global	SMSStrg
 762              		.global	call
 763              		.global	is_MPU_OK
 764              		.global	is_fall
 765              		.global	gGravity
 766              		.global	MPU6050
 767              		.section	.bss.MPU6050,"aw",%nobits
 768              		.align	3
 769              		.set	.LANCHOR5,. + 0
 772              	MPU6050:
 773 0000 00000000 		.space	88
 773      00000000 
 773      00000000 
 773      00000000 
 773      00000000 
 774              		.section	.bss.MQTTHandle,"aw",%nobits
 775              		.align	2
 776              		.set	.LANCHOR9,. + 0
 779              	MQTTHandle:
 780 0000 00000000 		.space	4
 781              		.section	.bss.SENSORsHandle,"aw",%nobits
 782              		.align	2
 783              		.set	.LANCHOR11,. + 0
 786              	SENSORsHandle:
 787 0000 00000000 		.space	4
 788              		.section	.bss.SecTimerHandle,"aw",%nobits
 789              		.align	2
 790              		.set	.LANCHOR1,. + 0
 793              	SecTimerHandle:
 794 0000 00000000 		.space	4
 795              		.section	.bss.gGravity,"aw",%nobits
 796              		.align	2
 797              		.set	.LANCHOR6,. + 0
 800              	gGravity:
 801 0000 00000000 		.space	4
 802              		.section	.bss.is_MPU_OK,"aw",%nobits
 803              		.set	.LANCHOR0,. + 0
 806              	is_MPU_OK:
 807 0000 00       		.space	1
ARM GAS  C:\Users\Vento\AppData\Local\Temp\ccHbfWGm.s 			page 22


 808              		.section	.bss.is_fall,"aw",%nobits
 809              		.set	.LANCHOR2,. + 0
 812              	is_fall:
 813 0000 00       		.space	1
 814              		.section	.data.Loc,"aw"
 815              		.align	2
 816              		.set	.LANCHOR4,. + 0
 819              	Loc:
 820 0000 31302E30 		.ascii	"10.035911,105.783660\000"
 820      33353931 
 820      312C3130 
 820      352E3738 
 820      33363630 
 821 0015 00000000 		.space	4
 822              		.section	.data.SMSStrg,"aw"
 823              		.align	2
 824              		.set	.LANCHOR3,. + 0
 827              	SMSStrg:
 828 0000 42454E48 		.ascii	"BENH NHAN DA BI NGA!\012Toa do benh nhan: https://w"
 828      204E4841 
 828      4E204441 
 828      20424920 
 828      4E474121 
 829 0030 77772E67 		.ascii	"ww.google.com/maps/search/?api=1&query=10.035911,10"
 829      6F6F676C 
 829      652E636F 
 829      6D2F6D61 
 829      70732F73 
 830 0063 352E3738 		.ascii	"5.783660\012\000"
 830      33363630 
 830      0A00
 831 006d 00       		.space	1
 832              		.section	.data.call,"aw"
 833              		.align	2
 836              	call:
 837 0000 4154442B 		.ascii	"ATD+84816056426;\015\012\000"
 837      38343831 
 837      36303536 
 837      3432363B 
 837      0D0A00
 838 0013 00000000 		.space	6
 838      0000
 839              		.section	.rodata.MQTT_attributes,"a"
 840              		.align	2
 841              		.set	.LANCHOR8,. + 0
 844              	MQTT_attributes:
 845 0000 14000000 		.word	.LC22
 846 0004 00000000 		.space	16
 846      00000000 
 846      00000000 
 846      00000000 
 847 0014 E8030000 		.word	1000
 848 0018 18000000 		.word	24
 849 001c 00000000 		.space	8
 849      00000000 
 850              		.section	.rodata.SENSORs_attributes,"a"
 851              		.align	2
ARM GAS  C:\Users\Vento\AppData\Local\Temp\ccHbfWGm.s 			page 23


 852              		.set	.LANCHOR10,. + 0
 855              	SENSORs_attributes:
 856 0000 0C000000 		.word	.LC21
 857 0004 00000000 		.space	16
 857      00000000 
 857      00000000 
 857      00000000 
 858 0014 58020000 		.word	600
 859 0018 08000000 		.word	8
 860 001c 00000000 		.space	8
 860      00000000 
 861              		.section	.rodata.SecTimer_attributes,"a"
 862              		.align	2
 863              		.set	.LANCHOR7,. + 0
 866              	SecTimer_attributes:
 867 0000 00000000 		.word	.LC20
 868 0004 00000000 		.space	12
 868      00000000 
 868      00000000 
 869              		.text
 870              	.Letext0:
 871              		.file 2 "d:\\tools\\gcc-arm-none-eabi-10.3-2021.07\\arm-none-eabi\\include\\machine\\_default_type
 872              		.file 3 "d:\\tools\\gcc-arm-none-eabi-10.3-2021.07\\arm-none-eabi\\include\\sys\\_stdint.h"
 873              		.file 4 "Drivers/CMSIS/Device/ST/STM32F1xx/Include/stm32f103xb.h"
 874              		.file 5 "Drivers/STM32F1xx_HAL_Driver/Inc/stm32f1xx_hal_def.h"
 875              		.file 6 "Drivers/STM32F1xx_HAL_Driver/Inc/stm32f1xx_hal_dma.h"
 876              		.file 7 "Drivers/STM32F1xx_HAL_Driver/Inc/stm32f1xx_hal_i2c.h"
 877              		.file 8 "Drivers/STM32F1xx_HAL_Driver/Inc/stm32f1xx_hal_iwdg.h"
 878              		.file 9 "Drivers/STM32F1xx_HAL_Driver/Inc/stm32f1xx_hal_uart.h"
 879              		.file 10 "Middlewares/Third_Party/FreeRTOS/Source/CMSIS_RTOS_V2/cmsis_os2.h"
 880              		.file 11 "Core/Inc/MQTTSim800.h"
 881              		.file 12 "Core/Inc/mpu6050.h"
 882              		.file 13 "Core/Inc/i2c.h"
 883              		.file 14 "Drivers/STM32F1xx_HAL_Driver/Inc/stm32f1xx_hal_gpio.h"
 884              		.file 15 "d:\\tools\\gcc-arm-none-eabi-10.3-2021.07\\arm-none-eabi\\include\\math.h"
 885              		.file 16 "Drivers/STM32F1xx_HAL_Driver/Inc/stm32f1xx_hal.h"
 886              		.file 17 "d:\\tools\\gcc-arm-none-eabi-10.3-2021.07\\arm-none-eabi\\include\\string.h"
ARM GAS  C:\Users\Vento\AppData\Local\Temp\ccHbfWGm.s 			page 24

