ARM GAS  C:\Users\Vento\AppData\Local\Temp\cce5YO1z.s 			page 1


   1              		.cpu cortex-m3
   2              		.eabi_attribute 20, 1
   3              		.eabi_attribute 21, 1
   4              		.eabi_attribute 23, 3
   5              		.eabi_attribute 24, 1
   6              		.eabi_attribute 25, 1
   7              		.eabi_attribute 26, 1
   8              		.eabi_attribute 30, 1
   9              		.eabi_attribute 34, 1
  10              		.eabi_attribute 18, 4
  11              		.file	"freertos.c"
  12              		.text
  13              	.Ltext0:
  14              		.cfi_sections	.debug_frame
  15              		.section	.rodata.MQTT_Task.str1.4,"aMS",%progbits,1
  16              		.align	2
  17              	.LC0:
  18 0000 6D332D77 		.ascii	"m3-world\000"
  18      6F726C64 
  18      00
  19 0009 000000   		.align	2
  20              	.LC1:
  21 000c 6D6D7300 		.ascii	"mms\000"
  22              		.align	2
  23              	.LC2:
  24 0010 686F7472 		.ascii	"hotrodotquy.vn\000"
  24      6F646F74 
  24      7175792E 
  24      766E00
  25 001f 00       		.align	2
  26              	.LC3:
  27 0020 00       		.ascii	"\000"
  28 0021 000000   		.align	2
  29              	.LC4:
  30 0024 686D00   		.ascii	"hm\000"
  31 0027 00       		.align	2
  32              	.LC5:
  33 0028 4F4B0D0A 		.ascii	"OK\015\012\000"
  33      00
  34 002d 000000   		.align	2
  35              	.LC6:
  36 0030 41540D0A 		.ascii	"AT\015\012\000"
  36      00
  37 0035 000000   		.align	2
  38              	.LC7:
  39 0038 4F4B0D00 		.ascii	"OK\015\000"
  40              		.align	2
  41              	.LC8:
  42 003c 41542B43 		.ascii	"AT+CGNSPWR=1\015\012\000"
  42      474E5350 
  42      57523D31 
  42      0D0A00
  43 004b 00       		.align	2
  44              	.LC9:
  45 004c 3000     		.ascii	"0\000"
  46 004e 0000     		.align	2
  47              	.LC10:
ARM GAS  C:\Users\Vento\AppData\Local\Temp\cce5YO1z.s 			page 2


  48 0050 6D656469 		.ascii	"medical_device/00000001/fall\000"
  48      63616C5F 
  48      64657669 
  48      63652F30 
  48      30303030 
  49 006d 000000   		.align	2
  50              	.LC11:
  51 0070 6D656469 		.ascii	"medical_device/00000001/SIMBattP\000"
  51      63616C5F 
  51      64657669 
  51      63652F30 
  51      30303030 
  52 0091 000000   		.align	2
  53              	.LC12:
  54 0094 6D656469 		.ascii	"medical_device/00000001/SDT\000"
  54      63616C5F 
  54      64657669 
  54      63652F30 
  54      30303030 
  55              		.align	2
  56              	.LC13:
  57 00b0 42454E48 		.ascii	"BENH NHAN DA BI NGA! SOS!\012\000"
  57      204E4841 
  57      4E204441 
  57      20424920 
  57      4E474121 
  58 00cb 00       		.align	2
  59              	.LC14:
  60 00cc 41542B43 		.ascii	"AT+CMGS=\"%s\"\015\012\000"
  60      4D47533D 
  60      22257322 
  60      0D0A00
  61 00db 00       		.align	2
  62              	.LC15:
  63 00dc 3E00     		.ascii	">\000"
  64 00de 0000     		.align	2
  65              	.LC16:
  66 00e0 54686F69 		.ascii	"Thoi diem: %d:%d:%d %d/%d/%d\012\000"
  66      20646965 
  66      6D3A2025 
  66      643A2564 
  66      3A256420 
  67 00fe 0000     		.align	2
  68              	.LC17:
  69 0100 546F6120 		.ascii	"Toa do: https://www.google.com/maps/search/?api=1&q"
  69      646F3A20 
  69      68747470 
  69      733A2F2F 
  69      7777772E 
  70 0133 75657279 		.ascii	"uery=%s,%s\012\000"
  70      3D25732C 
  70      25730A00 
  71 013f 00       		.align	2
  72              	.LC18:
  73 0140 546F6120 		.ascii	"Toa do lan cuoi: https://www.google.com/maps/search"
  73      646F206C 
  73      616E2063 
ARM GAS  C:\Users\Vento\AppData\Local\Temp\cce5YO1z.s 			page 3


  73      756F693A 
  73      20687474 
  74 0173 2F3F6170 		.ascii	"/?api=1&query=%f,%f\012\000"
  74      693D3126 
  74      71756572 
  74      793D2566 
  74      2C25660A 
  75              		.global	__aeabi_f2d
  76              		.align	2
  77              	.LC19:
  78 0188 3100     		.ascii	"1\000"
  79 018a 0000     		.align	2
  80              	.LC20:
  81 018c 25732C25 		.ascii	"%s,%s\000"
  81      7300
  82 0192 0000     		.align	2
  83              	.LC21:
  84 0194 25662C25 		.ascii	"%f,%f\000"
  84      6600
  85 019a 0000     		.align	2
  86              	.LC22:
  87 019c 6D656469 		.ascii	"medical_device/00000001/loc\000"
  87      63616C5F 
  87      64657669 
  87      63652F30 
  87      30303030 
  88              		.align	2
  89              	.LC23:
  90 01b8 41544425 		.ascii	"ATD%s;\015\012\000"
  90      733B0D0A 
  90      00
  91 01c1 000000   		.align	2
  92              	.LC24:
  93 01c4 4154480D 		.ascii	"ATH\015\012\000"
  93      0A00
  94 01ca 0000     		.align	2
  95              	.LC25:
  96 01cc 50696E20 		.ascii	"Pin cua thiet bi dang o muc yeu (%i%), hay mang thi"
  96      63756120 
  96      74686965 
  96      74206269 
  96      2064616E 
  97 01ff 65742062 		.ascii	"et bi ve tram sac\000"
  97      69207665 
  97      20747261 
  97      6D207361 
  97      6300
  98              		.global	__aeabi_fcmpeq
  99              		.section	.text.MQTT_Task,"ax",%progbits
 100              		.align	1
 101              		.global	MQTT_Task
 102              		.arch armv7-m
 103              		.syntax unified
 104              		.thumb
 105              		.thumb_func
 106              		.fpu softvfp
 108              	MQTT_Task:
ARM GAS  C:\Users\Vento\AppData\Local\Temp\cce5YO1z.s 			page 4


 109              	.LVL0:
 110              	.LFB73:
 111              		.file 1 "Core/Src/freertos.c"
   1:Core/Src/freertos.c **** /* USER CODE BEGIN Header */
   2:Core/Src/freertos.c **** /**
   3:Core/Src/freertos.c ****   ******************************************************************************
   4:Core/Src/freertos.c ****   * File Name          : freertos.c
   5:Core/Src/freertos.c ****   * Description        : Code for freertos applications
   6:Core/Src/freertos.c ****   ******************************************************************************
   7:Core/Src/freertos.c ****   * @attention
   8:Core/Src/freertos.c ****   *
   9:Core/Src/freertos.c ****   * Copyright (c) 2022 STMicroelectronics.
  10:Core/Src/freertos.c ****   * All rights reserved.
  11:Core/Src/freertos.c ****   *
  12:Core/Src/freertos.c ****   * This software is licensed under terms that can be found in the LICENSE file
  13:Core/Src/freertos.c ****   * in the root directory of this software component.
  14:Core/Src/freertos.c ****   * If no LICENSE file comes with this software, it is provided AS-IS.
  15:Core/Src/freertos.c ****   *
  16:Core/Src/freertos.c ****   ******************************************************************************
  17:Core/Src/freertos.c ****   */
  18:Core/Src/freertos.c **** /* USER CODE END Header */
  19:Core/Src/freertos.c **** 
  20:Core/Src/freertos.c **** /* Includes ------------------------------------------------------------------*/
  21:Core/Src/freertos.c **** #include "FreeRTOS.h"
  22:Core/Src/freertos.c **** #include "task.h"
  23:Core/Src/freertos.c **** #include "main.h"
  24:Core/Src/freertos.c **** #include "cmsis_os.h"
  25:Core/Src/freertos.c **** 
  26:Core/Src/freertos.c **** /* Private includes ----------------------------------------------------------*/
  27:Core/Src/freertos.c **** /* USER CODE BEGIN Includes */
  28:Core/Src/freertos.c **** 
  29:Core/Src/freertos.c **** #include "MQTTSim800.h"
  30:Core/Src/freertos.c **** #include "mpu6050.h"
  31:Core/Src/freertos.c **** #include "math.h"
  32:Core/Src/freertos.c **** #include "string.h"
  33:Core/Src/freertos.c **** #include "stdio.h"
  34:Core/Src/freertos.c **** 
  35:Core/Src/freertos.c **** /* USER CODE END Includes */
  36:Core/Src/freertos.c **** 
  37:Core/Src/freertos.c **** /* Private typedef -----------------------------------------------------------*/
  38:Core/Src/freertos.c **** /* USER CODE BEGIN PTD */
  39:Core/Src/freertos.c **** 
  40:Core/Src/freertos.c **** typedef struct
  41:Core/Src/freertos.c **** {
  42:Core/Src/freertos.c ****   uint8_t SIM;
  43:Core/Src/freertos.c ****   uint8_t GPRS;
  44:Core/Src/freertos.c ****   uint8_t MQTT;
  45:Core/Src/freertos.c **** } SIM800_St;
  46:Core/Src/freertos.c **** 
  47:Core/Src/freertos.c **** /* USER CODE END PTD */
  48:Core/Src/freertos.c **** 
  49:Core/Src/freertos.c **** /* Private define ------------------------------------------------------------*/
  50:Core/Src/freertos.c **** /* USER CODE BEGIN PD */
  51:Core/Src/freertos.c **** 
  52:Core/Src/freertos.c **** #define SIM_R_OK    0
  53:Core/Src/freertos.c **** #define SIM_R_nOK   1
  54:Core/Src/freertos.c **** 
ARM GAS  C:\Users\Vento\AppData\Local\Temp\cce5YO1z.s 			page 5


  55:Core/Src/freertos.c **** #define MPU_OK  0
  56:Core/Src/freertos.c **** #define MPU_nOK 1
  57:Core/Src/freertos.c **** 
  58:Core/Src/freertos.c **** /* USER CODE END PD */
  59:Core/Src/freertos.c **** 
  60:Core/Src/freertos.c **** /* Private macro -------------------------------------------------------------*/
  61:Core/Src/freertos.c **** /* USER CODE BEGIN PM */
  62:Core/Src/freertos.c **** 
  63:Core/Src/freertos.c **** /* USER CODE END PM */
  64:Core/Src/freertos.c **** 
  65:Core/Src/freertos.c **** /* Private variables ---------------------------------------------------------*/
  66:Core/Src/freertos.c **** /* USER CODE BEGIN Variables */
  67:Core/Src/freertos.c **** 
  68:Core/Src/freertos.c **** extern UART_HandleTypeDef huart1;
  69:Core/Src/freertos.c **** extern I2C_HandleTypeDef hi2c1;
  70:Core/Src/freertos.c **** extern IWDG_HandleTypeDef hiwdg;
  71:Core/Src/freertos.c **** extern SIM800_t SIM800;
  72:Core/Src/freertos.c **** extern uint8_t rx_data;
  73:Core/Src/freertos.c **** extern SIM800_St SIM800_Status;
  74:Core/Src/freertos.c **** extern GPS_Sta_t myGPS;
  75:Core/Src/freertos.c **** extern SIM800_Batt_t SIM800_Batt;
  76:Core/Src/freertos.c **** 
  77:Core/Src/freertos.c **** MPU6050_t MPU6050;
  78:Core/Src/freertos.c **** 
  79:Core/Src/freertos.c **** float gGravity = 0.0;
  80:Core/Src/freertos.c **** 
  81:Core/Src/freertos.c **** volatile uint8_t  is_SMS_done = 0;
  82:Core/Src/freertos.c **** uint8_t is_fall = 0;
  83:Core/Src/freertos.c **** uint8_t is_busy = 0;
  84:Core/Src/freertos.c **** uint8_t is_MPU_OK = 0;
  85:Core/Src/freertos.c **** uint8_t is_GPS_new = 0;
  86:Core/Src/freertos.c **** 
  87:Core/Src/freertos.c **** float Lon = 0.0;
  88:Core/Src/freertos.c **** float Lat = 0.0;
  89:Core/Src/freertos.c **** 
  90:Core/Src/freertos.c **** // char call[25] = "ATD+84816056426;\r\n";
  91:Core/Src/freertos.c **** char SMS[200] = {0};
  92:Core/Src/freertos.c **** // char SMSStrg[110] = "BENH NHAN DA BI NGA!\nToa do benh nhan: 
  93:Core/Src/freertos.c **** //                     https://www.google.com/maps/search/?api=1&query=";
  94:Core/Src/freertos.c **** // char InfoBV1[110] = "Benh vien Da khoa Hoan My Cuu Long, SDT: 02923917901\nBenh vien Da khoa S.I
  95:Core/Src/freertos.c **** // char InfoBV2[110] = "Benh vien Da khoa Thanh pho Can Tho, SDT: 02923821235\nBenh vien Da khoa Tr
  96:Core/Src/freertos.c **** char Number[13] = "0914989855";
  97:Core/Src/freertos.c **** 
  98:Core/Src/freertos.c **** /* USER CODE END Variables */
  99:Core/Src/freertos.c **** /* Definitions for MQTT */
 100:Core/Src/freertos.c **** osThreadId_t MQTTHandle;
 101:Core/Src/freertos.c **** const osThreadAttr_t MQTT_attributes = {
 102:Core/Src/freertos.c ****   .name = "MQTT",
 103:Core/Src/freertos.c ****   .stack_size = 350 * 4,
 104:Core/Src/freertos.c ****   .priority = (osPriority_t) osPriorityNormal,
 105:Core/Src/freertos.c **** };
 106:Core/Src/freertos.c **** /* Definitions for SENSORs */
 107:Core/Src/freertos.c **** osThreadId_t SENSORsHandle;
 108:Core/Src/freertos.c **** const osThreadAttr_t SENSORs_attributes = {
 109:Core/Src/freertos.c ****   .name = "SENSORs",
 110:Core/Src/freertos.c ****   .stack_size = 150 * 4,
 111:Core/Src/freertos.c ****   .priority = (osPriority_t) osPriorityLow,
ARM GAS  C:\Users\Vento\AppData\Local\Temp\cce5YO1z.s 			page 6


 112:Core/Src/freertos.c **** };
 113:Core/Src/freertos.c **** /* Definitions for SecTimer */
 114:Core/Src/freertos.c **** osTimerId_t SecTimerHandle;
 115:Core/Src/freertos.c **** const osTimerAttr_t SecTimer_attributes = {
 116:Core/Src/freertos.c ****   .name = "SecTimer"
 117:Core/Src/freertos.c **** };
 118:Core/Src/freertos.c **** 
 119:Core/Src/freertos.c **** /* Private function prototypes -----------------------------------------------*/
 120:Core/Src/freertos.c **** /* USER CODE BEGIN FunctionPrototypes */
 121:Core/Src/freertos.c **** 
 122:Core/Src/freertos.c **** 
 123:Core/Src/freertos.c **** 
 124:Core/Src/freertos.c **** /* USER CODE END FunctionPrototypes */
 125:Core/Src/freertos.c **** 
 126:Core/Src/freertos.c **** void MQTT_Task(void *argument);
 127:Core/Src/freertos.c **** void Sensor_Task(void *argument);
 128:Core/Src/freertos.c **** void Callback01(void *argument);
 129:Core/Src/freertos.c **** 
 130:Core/Src/freertos.c **** void MX_FREERTOS_Init(void); /* (MISRA C 2004 rule 8.1) */
 131:Core/Src/freertos.c **** 
 132:Core/Src/freertos.c **** /**
 133:Core/Src/freertos.c ****   * @brief  FreeRTOS initialization
 134:Core/Src/freertos.c ****   * @param  None
 135:Core/Src/freertos.c ****   * @retval None
 136:Core/Src/freertos.c ****   */
 137:Core/Src/freertos.c **** void MX_FREERTOS_Init(void) {
 138:Core/Src/freertos.c ****   /* USER CODE BEGIN Init */
 139:Core/Src/freertos.c **** 
 140:Core/Src/freertos.c ****   /* USER CODE END Init */
 141:Core/Src/freertos.c **** 
 142:Core/Src/freertos.c ****   /* USER CODE BEGIN RTOS_MUTEX */
 143:Core/Src/freertos.c ****   /* add mutexes, ... */
 144:Core/Src/freertos.c ****   /* USER CODE END RTOS_MUTEX */
 145:Core/Src/freertos.c **** 
 146:Core/Src/freertos.c ****   /* USER CODE BEGIN RTOS_SEMAPHORES */
 147:Core/Src/freertos.c ****   /* add semaphores, ... */
 148:Core/Src/freertos.c ****   /* USER CODE END RTOS_SEMAPHORES */
 149:Core/Src/freertos.c **** 
 150:Core/Src/freertos.c ****   /* Create the timer(s) */
 151:Core/Src/freertos.c ****   /* creation of SecTimer */
 152:Core/Src/freertos.c ****   SecTimerHandle = osTimerNew(Callback01, osTimerPeriodic, NULL, &SecTimer_attributes);
 153:Core/Src/freertos.c **** 
 154:Core/Src/freertos.c ****   /* USER CODE BEGIN RTOS_TIMERS */
 155:Core/Src/freertos.c ****   /* start timers, add new ones, ... */
 156:Core/Src/freertos.c ****   /* USER CODE END RTOS_TIMERS */
 157:Core/Src/freertos.c **** 
 158:Core/Src/freertos.c ****   /* USER CODE BEGIN RTOS_QUEUES */
 159:Core/Src/freertos.c ****   /* add queues, ... */
 160:Core/Src/freertos.c ****   /* USER CODE END RTOS_QUEUES */
 161:Core/Src/freertos.c **** 
 162:Core/Src/freertos.c ****   /* Create the thread(s) */
 163:Core/Src/freertos.c ****   /* creation of MQTT */
 164:Core/Src/freertos.c ****   MQTTHandle = osThreadNew(MQTT_Task, NULL, &MQTT_attributes);
 165:Core/Src/freertos.c **** 
 166:Core/Src/freertos.c ****   /* creation of SENSORs */
 167:Core/Src/freertos.c ****   SENSORsHandle = osThreadNew(Sensor_Task, NULL, &SENSORs_attributes);
 168:Core/Src/freertos.c **** 
ARM GAS  C:\Users\Vento\AppData\Local\Temp\cce5YO1z.s 			page 7


 169:Core/Src/freertos.c ****   /* USER CODE BEGIN RTOS_THREADS */
 170:Core/Src/freertos.c ****   /* add threads, ... */
 171:Core/Src/freertos.c ****   /* USER CODE END RTOS_THREADS */
 172:Core/Src/freertos.c **** 
 173:Core/Src/freertos.c ****   /* USER CODE BEGIN RTOS_EVENTS */
 174:Core/Src/freertos.c ****   /* add events, ... */
 175:Core/Src/freertos.c ****   /* USER CODE END RTOS_EVENTS */
 176:Core/Src/freertos.c **** 
 177:Core/Src/freertos.c **** }
 178:Core/Src/freertos.c **** 
 179:Core/Src/freertos.c **** /* USER CODE BEGIN Header_MQTT_Task */
 180:Core/Src/freertos.c **** /**
 181:Core/Src/freertos.c ****   * @brief  Function implementing the MQTT thread.
 182:Core/Src/freertos.c ****   * @param  argument: Not used
 183:Core/Src/freertos.c ****   * @retval None
 184:Core/Src/freertos.c ****   */
 185:Core/Src/freertos.c **** /* USER CODE END Header_MQTT_Task */
 186:Core/Src/freertos.c **** void MQTT_Task(void *argument)
 187:Core/Src/freertos.c **** {
 112              		.loc 1 187 1 view -0
 113              		.cfi_startproc
 114              		@ args = 0, pretend = 0, frame = 104
 115              		@ frame_needed = 0, uses_anonymous_args = 0
 116              		.loc 1 187 1 is_stmt 0 view .LVU1
 117 0000 2DE9F043 		push	{r4, r5, r6, r7, r8, r9, lr}
 118              	.LCFI0:
 119              		.cfi_def_cfa_offset 28
 120              		.cfi_offset 4, -28
 121              		.cfi_offset 5, -24
 122              		.cfi_offset 6, -20
 123              		.cfi_offset 7, -16
 124              		.cfi_offset 8, -12
 125              		.cfi_offset 9, -8
 126              		.cfi_offset 14, -4
 127 0004 A1B0     		sub	sp, sp, #132
 128              	.LCFI1:
 129              		.cfi_def_cfa_offset 160
 188:Core/Src/freertos.c ****   /* USER CODE BEGIN MQTT_Task */
 189:Core/Src/freertos.c **** 
 190:Core/Src/freertos.c ****   //  Khoi tao cac tham so cho ket noi qua giao thuc MQTT
 191:Core/Src/freertos.c ****   SIM800.sim.apn = "m3-world";
 130              		.loc 1 191 3 is_stmt 1 view .LVU2
 131              		.loc 1 191 18 is_stmt 0 view .LVU3
 132 0006 B14B     		ldr	r3, .L48
 133 0008 B14A     		ldr	r2, .L48+4
 134 000a 1A60     		str	r2, [r3]
 192:Core/Src/freertos.c ****   SIM800.sim.apn_user = "mms";
 135              		.loc 1 192 3 is_stmt 1 view .LVU4
 136              		.loc 1 192 23 is_stmt 0 view .LVU5
 137 000c B14A     		ldr	r2, .L48+8
 138 000e 5A60     		str	r2, [r3, #4]
 193:Core/Src/freertos.c ****   SIM800.sim.apn_pass = "mms";
 139              		.loc 1 193 3 is_stmt 1 view .LVU6
 140              		.loc 1 193 23 is_stmt 0 view .LVU7
 141 0010 9A60     		str	r2, [r3, #8]
 194:Core/Src/freertos.c ****   SIM800.mqttServer.host = "hotrodotquy.vn";
 142              		.loc 1 194 3 is_stmt 1 view .LVU8
ARM GAS  C:\Users\Vento\AppData\Local\Temp\cce5YO1z.s 			page 8


 143              		.loc 1 194 26 is_stmt 0 view .LVU9
 144 0012 B14A     		ldr	r2, .L48+12
 145 0014 DA60     		str	r2, [r3, #12]
 195:Core/Src/freertos.c ****   SIM800.mqttServer.port = 1883;
 146              		.loc 1 195 3 is_stmt 1 view .LVU10
 147              		.loc 1 195 26 is_stmt 0 view .LVU11
 148 0016 40F25B72 		movw	r2, #1883
 149 001a 1A82     		strh	r2, [r3, #16]	@ movhi
 196:Core/Src/freertos.c ****   SIM800.mqttClient.username = "";
 150              		.loc 1 196 3 is_stmt 1 view .LVU12
 151              		.loc 1 196 30 is_stmt 0 view .LVU13
 152 001c AF4A     		ldr	r2, .L48+16
 153 001e 5A61     		str	r2, [r3, #20]
 197:Core/Src/freertos.c ****   SIM800.mqttClient.clientID = "hm";
 154              		.loc 1 197 3 is_stmt 1 view .LVU14
 155              		.loc 1 197 30 is_stmt 0 view .LVU15
 156 0020 AF49     		ldr	r1, .L48+20
 157 0022 D961     		str	r1, [r3, #28]
 198:Core/Src/freertos.c ****   SIM800.mqttClient.pass = "";
 158              		.loc 1 198 3 is_stmt 1 view .LVU16
 159              		.loc 1 198 26 is_stmt 0 view .LVU17
 160 0024 9A61     		str	r2, [r3, #24]
 199:Core/Src/freertos.c ****   SIM800.mqttClient.keepAliveInterval = 120;
 161              		.loc 1 199 3 is_stmt 1 view .LVU18
 162              		.loc 1 199 39 is_stmt 0 view .LVU19
 163 0026 7822     		movs	r2, #120
 164 0028 1A84     		strh	r2, [r3, #32]	@ movhi
 200:Core/Src/freertos.c **** 
 201:Core/Src/freertos.c ****   // Chuan bi nghe phan hoi tu module SIM
 202:Core/Src/freertos.c ****   osDelay(100);
 165              		.loc 1 202 3 is_stmt 1 view .LVU20
 166 002a 6420     		movs	r0, #100
 167              	.LVL1:
 168              		.loc 1 202 3 is_stmt 0 view .LVU21
 169 002c FFF7FEFF 		bl	osDelay
 170              	.LVL2:
 203:Core/Src/freertos.c **** 
 204:Core/Src/freertos.c ****   HAL_UART_Receive_IT(UART_SIM800, &rx_data, 1);
 171              		.loc 1 204 3 is_stmt 1 view .LVU22
 172 0030 0122     		movs	r2, #1
 173 0032 AC49     		ldr	r1, .L48+24
 174 0034 AC48     		ldr	r0, .L48+28
 175 0036 FFF7FEFF 		bl	HAL_UART_Receive_IT
 176              	.LVL3:
 205:Core/Src/freertos.c **** 
 206:Core/Src/freertos.c **** 
 207:Core/Src/freertos.c ****   //Kiem tra module SIM hoat dong chua? Neu chua thi bat module SIM
 208:Core/Src/freertos.c ****   while (SIM800_SendCommand("AT\r\n", "OK\r\n", CMD_DELAY) == SIM_R_nOK)
 177              		.loc 1 208 3 view .LVU23
 178              		.loc 1 208 9 is_stmt 0 view .LVU24
 179 003a 14E0     		b	.L2
 180              	.L3:
 209:Core/Src/freertos.c ****   {
 210:Core/Src/freertos.c ****     HAL_GPIO_WritePin(SIM_PWRKEY_GPIO_Port, SIM_PWRKEY_Pin, 1);
 181              		.loc 1 210 5 is_stmt 1 view .LVU25
 182 003c AB4C     		ldr	r4, .L48+32
 183 003e 0122     		movs	r2, #1
ARM GAS  C:\Users\Vento\AppData\Local\Temp\cce5YO1z.s 			page 9


 184 0040 4FF48071 		mov	r1, #256
 185 0044 2046     		mov	r0, r4
 186 0046 FFF7FEFF 		bl	HAL_GPIO_WritePin
 187              	.LVL4:
 211:Core/Src/freertos.c ****     osDelay(2000);
 188              		.loc 1 211 5 view .LVU26
 189 004a 4FF4FA60 		mov	r0, #2000
 190 004e FFF7FEFF 		bl	osDelay
 191              	.LVL5:
 212:Core/Src/freertos.c ****     HAL_GPIO_WritePin(SIM_PWRKEY_GPIO_Port, SIM_PWRKEY_Pin, 0);
 192              		.loc 1 212 5 view .LVU27
 193 0052 0022     		movs	r2, #0
 194 0054 4FF48071 		mov	r1, #256
 195 0058 2046     		mov	r0, r4
 196 005a FFF7FEFF 		bl	HAL_GPIO_WritePin
 197              	.LVL6:
 213:Core/Src/freertos.c ****     osDelay(2000);
 198              		.loc 1 213 5 view .LVU28
 199 005e 4FF4FA60 		mov	r0, #2000
 200 0062 FFF7FEFF 		bl	osDelay
 201              	.LVL7:
 202              	.L2:
 208:Core/Src/freertos.c ****   {
 203              		.loc 1 208 9 view .LVU29
 208:Core/Src/freertos.c ****   {
 204              		.loc 1 208 10 is_stmt 0 view .LVU30
 205 0066 4FF4FA62 		mov	r2, #2000
 206 006a A149     		ldr	r1, .L48+36
 207 006c A148     		ldr	r0, .L48+40
 208 006e FFF7FEFF 		bl	SIM800_SendCommand
 209              	.LVL8:
 208:Core/Src/freertos.c ****   {
 210              		.loc 1 208 9 view .LVU31
 211 0072 0128     		cmp	r0, #1
 212 0074 E2D0     		beq	.L3
 214:Core/Src/freertos.c ****   }
 215:Core/Src/freertos.c ****   
 216:Core/Src/freertos.c ****   osDelay(2000);
 213              		.loc 1 216 3 is_stmt 1 view .LVU32
 214 0076 4FF4FA60 		mov	r0, #2000
 215 007a FFF7FEFF 		bl	osDelay
 216              	.LVL9:
 217:Core/Src/freertos.c ****   // Reset CLK timeout
 218:Core/Src/freertos.c ****   if (is_MPU_OK == 1)     HAL_IWDG_Refresh(&hiwdg);
 217              		.loc 1 218 3 view .LVU33
 218              		.loc 1 218 17 is_stmt 0 view .LVU34
 219 007e 9E4B     		ldr	r3, .L48+44
 220 0080 1B78     		ldrb	r3, [r3]	@ zero_extendqisi2
 221              		.loc 1 218 6 view .LVU35
 222 0082 012B     		cmp	r3, #1
 223 0084 35D0     		beq	.L37
 224              	.L4:
 219:Core/Src/freertos.c **** 
 220:Core/Src/freertos.c ****   SIM800_SendCommand("AT+CGNSPWR=1\r\n", "OK\r", 1000);
 225              		.loc 1 220 3 is_stmt 1 view .LVU36
 226 0086 4FF47A72 		mov	r2, #1000
 227 008a 9C49     		ldr	r1, .L48+48
ARM GAS  C:\Users\Vento\AppData\Local\Temp\cce5YO1z.s 			page 10


 228 008c 9C48     		ldr	r0, .L48+52
 229 008e FFF7FEFF 		bl	SIM800_SendCommand
 230              	.LVL10:
 221:Core/Src/freertos.c **** 
 222:Core/Src/freertos.c ****   // Bat dau ket noi MQTT
 223:Core/Src/freertos.c ****   MQTT_Init();
 231              		.loc 1 223 3 view .LVU37
 232 0092 FFF7FEFF 		bl	MQTT_Init
 233              	.LVL11:
 224:Core/Src/freertos.c **** 
 225:Core/Src/freertos.c ****   // SIM800_SendCommand("AT\r\n", "OK\r\n", CMD_DELAY);
 226:Core/Src/freertos.c ****   // SIM800_SendCommand("ATE0\r\n", "OK\r\n", CMD_DELAY);
 227:Core/Src/freertos.c ****   // if (SIM800_SendCommand("AT\r\n", "OK\r\n", CMD_DELAY) == 0){SIM800_Status.SIM = 1;}
 228:Core/Src/freertos.c ****   // else
 229:Core/Src/freertos.c ****   // {
 230:Core/Src/freertos.c ****   //     SIM800_Status.SIM = 0;
 231:Core/Src/freertos.c ****   //     SIM800_Status.GPRS = 0;
 232:Core/Src/freertos.c ****   //     SIM800_Status.MQTT = 0;
 233:Core/Src/freertos.c ****   // }
 234:Core/Src/freertos.c ****   // SIM800_SendCommand("AT+CMGF=1\r\n", "OK\r\n", 1000);
 235:Core/Src/freertos.c ****   // SIM800_SendCommand("AT+CIPSHUT\r\n", "OK\r\n", CMD_DELAY);
 236:Core/Src/freertos.c ****   // SIM800_SendCommand("AT+CGATT=1\r\n", "OK\r\n", CMD_DELAY);
 237:Core/Src/freertos.c **** 
 238:Core/Src/freertos.c ****   // Reset CLK timeout
 239:Core/Src/freertos.c ****   if (is_MPU_OK == 1)     HAL_IWDG_Refresh(&hiwdg);
 234              		.loc 1 239 3 view .LVU38
 235              		.loc 1 239 17 is_stmt 0 view .LVU39
 236 0096 984B     		ldr	r3, .L48+44
 237 0098 1B78     		ldrb	r3, [r3]	@ zero_extendqisi2
 238              		.loc 1 239 6 view .LVU40
 239 009a 012B     		cmp	r3, #1
 240 009c 2DD0     		beq	.L38
 241              	.L5:
 240:Core/Src/freertos.c **** 
 241:Core/Src/freertos.c ****   // SIM800_SendCommand("AT+SAPBR=3,1,\"CONTYPE\",\"GPRS\"\r\n", "OK\r\n", CMD_DELAY);
 242:Core/Src/freertos.c ****   // SIM800_SendCommand("AT+SAPBR=3,1,\"APN\",\"CMNET\"\r\n", "OK\r\n", CMD_DELAY);
 243:Core/Src/freertos.c ****   // SIM800_SendCommand("AT+SAPBR=1,1\r\n", "OK\r\n", CMD_DELAY);
 244:Core/Src/freertos.c ****   // SIM800_SendCommand("AT+SAPBR=2,1\r\n", "OK\r\n", CMD_DELAY);
 245:Core/Src/freertos.c ****   // SIM800_SendCommand("AT+CLBS=1,1\r\n", "OK\r\n", 10000);
 246:Core/Src/freertos.c **** 
 247:Core/Src/freertos.c **** 
 248:Core/Src/freertos.c ****   // SIM800_SendCommand("ATE0\r\n", "OK\r\n", 1000);
 249:Core/Src/freertos.c ****   // SIM800_SendCommand("AT+CFUN=1\r\n", "OK\r\n", 1000);
 250:Core/Src/freertos.c **** 
 251:Core/Src/freertos.c ****   // SIM800_SendCommand("AT+CUSD=1,\"*101#\"\r\n", "OK\r\n", 5000);
 252:Core/Src/freertos.c **** 
 253:Core/Src/freertos.c ****   // SIM800_SendCommand("AT+CSCS?\r\n", "OK\r\n", 1000);
 254:Core/Src/freertos.c ****   // SIM800_SendCommand("AT+CSCS=\"GSM\"\r\n", "OK\r\n", 1000);
 255:Core/Src/freertos.c ****   // SIM800_SendCommand("AT+CSDH?\r\n", "OK\r\n", 1000);
 256:Core/Src/freertos.c ****   // SIM800_SendCommand("AT+CSMP=17,167,0,0\r\n", "OK\r\n", 1000);
 257:Core/Src/freertos.c **** 
 258:Core/Src/freertos.c ****   // Reset CLK timeout
 259:Core/Src/freertos.c **** 
 260:Core/Src/freertos.c ****   // Khoi tao timer 1s Reset CLK tu dong
 261:Core/Src/freertos.c ****   osTimerStart(SecTimerHandle, 2000);
 242              		.loc 1 261 3 is_stmt 1 view .LVU41
 243 009e 4FF4FA61 		mov	r1, #2000
ARM GAS  C:\Users\Vento\AppData\Local\Temp\cce5YO1z.s 			page 11


 244 00a2 984B     		ldr	r3, .L48+56
 245 00a4 1868     		ldr	r0, [r3]
 246 00a6 FFF7FEFF 		bl	osTimerStart
 247              	.LVL12:
 262:Core/Src/freertos.c ****   
 263:Core/Src/freertos.c ****   // Ban tin ket noi trang thai dau tien
 264:Core/Src/freertos.c ****   osDelay(200);
 248              		.loc 1 264 3 view .LVU42
 249 00aa C820     		movs	r0, #200
 250 00ac FFF7FEFF 		bl	osDelay
 251              	.LVL13:
 265:Core/Src/freertos.c ****   getBattery();
 252              		.loc 1 265 3 view .LVU43
 253 00b0 FFF7FEFF 		bl	getBattery
 254              	.LVL14:
 266:Core/Src/freertos.c ****   MQTT_Pub("medical_device/00000001/fall", "0");
 255              		.loc 1 266 3 view .LVU44
 256 00b4 9449     		ldr	r1, .L48+60
 257 00b6 9548     		ldr	r0, .L48+64
 258 00b8 FFF7FEFF 		bl	MQTT_Pub
 259              	.LVL15:
 267:Core/Src/freertos.c ****   MQTT_PubUint8("medical_device/00000001/SIMBattP", SIM800_Batt.BattPerc);
 260              		.loc 1 267 3 view .LVU45
 261 00bc 944B     		ldr	r3, .L48+68
 262 00be 1978     		ldrb	r1, [r3]	@ zero_extendqisi2
 263 00c0 9448     		ldr	r0, .L48+72
 264 00c2 FFF7FEFF 		bl	MQTT_PubUint8
 265              	.LVL16:
 268:Core/Src/freertos.c ****   // MQTT_PubUint16("medical_device/00000001/SIMBattV", SIM800_Batt.BattVol);
 269:Core/Src/freertos.c ****   osDelay(200);
 266              		.loc 1 269 3 view .LVU46
 267 00c6 C820     		movs	r0, #200
 268 00c8 FFF7FEFF 		bl	osDelay
 269              	.LVL17:
 270:Core/Src/freertos.c ****   uint32_t time = HAL_GetTick();
 270              		.loc 1 270 3 view .LVU47
 271              		.loc 1 270 19 is_stmt 0 view .LVU48
 272 00cc FFF7FEFF 		bl	HAL_GetTick
 273              	.LVL18:
 274 00d0 0446     		mov	r4, r0
 275              	.LVL19:
 271:Core/Src/freertos.c ****   uint32_t timeBatt = HAL_GetTick();
 276              		.loc 1 271 3 is_stmt 1 view .LVU49
 277              		.loc 1 271 23 is_stmt 0 view .LVU50
 278 00d2 FFF7FEFF 		bl	HAL_GetTick
 279              	.LVL20:
 280              		.loc 1 271 23 view .LVU51
 281 00d6 0646     		mov	r6, r0
 282              	.LVL21:
 272:Core/Src/freertos.c ****   uint32_t GPStime = HAL_GetTick();
 283              		.loc 1 272 3 is_stmt 1 view .LVU52
 284              		.loc 1 272 22 is_stmt 0 view .LVU53
 285 00d8 FFF7FEFF 		bl	HAL_GetTick
 286              	.LVL22:
 287              		.loc 1 272 22 view .LVU54
 288 00dc 0546     		mov	r5, r0
 289              	.LVL23:
ARM GAS  C:\Users\Vento\AppData\Local\Temp\cce5YO1z.s 			page 12


 273:Core/Src/freertos.c ****   MQTT_Sub("medical_device/00000001/SDT");
 290              		.loc 1 273 3 is_stmt 1 view .LVU55
 291 00de 8E48     		ldr	r0, .L48+76
 292              	.LVL24:
 293              		.loc 1 273 3 is_stmt 0 view .LVU56
 294 00e0 FFF7FEFF 		bl	MQTT_Sub
 295              	.LVL25:
 274:Core/Src/freertos.c **** 
 275:Core/Src/freertos.c ****   char str[100] = {0};
 296              		.loc 1 275 3 is_stmt 1 view .LVU57
 297              		.loc 1 275 8 is_stmt 0 view .LVU58
 298 00e4 0021     		movs	r1, #0
 299 00e6 0791     		str	r1, [sp, #28]
 300 00e8 6022     		movs	r2, #96
 301 00ea 08A8     		add	r0, sp, #32
 302 00ec FFF7FEFF 		bl	memset
 303              	.LVL26:
 304 00f0 55E2     		b	.L6
 305              	.LVL27:
 306              	.L37:
 218:Core/Src/freertos.c **** 
 307              		.loc 1 218 27 is_stmt 1 discriminator 1 view .LVU59
 308 00f2 8A48     		ldr	r0, .L48+80
 309 00f4 FFF7FEFF 		bl	HAL_IWDG_Refresh
 310              	.LVL28:
 311 00f8 C5E7     		b	.L4
 312              	.L38:
 239:Core/Src/freertos.c **** 
 313              		.loc 1 239 27 discriminator 1 view .LVU60
 314 00fa 8848     		ldr	r0, .L48+80
 315 00fc FFF7FEFF 		bl	HAL_IWDG_Refresh
 316              	.LVL29:
 317 0100 CDE7     		b	.L5
 318              	.LVL30:
 319              	.L43:
 276:Core/Src/freertos.c **** 
 277:Core/Src/freertos.c ****   /* Infinite loop */
 278:Core/Src/freertos.c ****   for(;;)
 279:Core/Src/freertos.c ****   {
 280:Core/Src/freertos.c ****     osDelay(1000);
 281:Core/Src/freertos.c ****     if (is_fall == 1)
 282:Core/Src/freertos.c ****     {
 283:Core/Src/freertos.c ****       // BENH NHAN DA NGA, GUI TIN NHAN
 284:Core/Src/freertos.c ****       memset(str, '\0', sizeof(str));
 320              		.loc 1 284 7 view .LVU61
 321 0102 4FF06409 		mov	r9, #100
 322 0106 4A46     		mov	r2, r9
 323 0108 0021     		movs	r1, #0
 324 010a 07A8     		add	r0, sp, #28
 325 010c FFF7FEFF 		bl	memset
 326              	.LVL31:
 285:Core/Src/freertos.c ****       memset(SMS, '\0', sizeof(SMS));
 327              		.loc 1 285 7 view .LVU62
 328 0110 DFF80C82 		ldr	r8, .L48+84
 329 0114 C822     		movs	r2, #200
 330 0116 0021     		movs	r1, #0
 331 0118 4046     		mov	r0, r8
ARM GAS  C:\Users\Vento\AppData\Local\Temp\cce5YO1z.s 			page 13


 332 011a FFF7FEFF 		bl	memset
 333              	.LVL32:
 286:Core/Src/freertos.c ****       strcat(SMS, "BENH NHAN DA BI NGA! SOS!\n");
 334              		.loc 1 286 7 view .LVU63
 335 011e 4046     		mov	r0, r8
 336 0120 FFF7FEFF 		bl	strlen
 337              	.LVL33:
 338 0124 8646     		mov	lr, r0
 339 0126 08EB000C 		add	ip, r8, r0
 340 012a 7E4F     		ldr	r7, .L48+88
 341 012c 0FCF     		ldmia	r7!, {r0, r1, r2, r3}
 342 012e 48F80E00 		str	r0, [r8, lr]	@ unaligned
 343 0132 CCF80410 		str	r1, [ip, #4]	@ unaligned
 344 0136 CCF80820 		str	r2, [ip, #8]	@ unaligned
 345 013a CCF80C30 		str	r3, [ip, #12]	@ unaligned
 346 013e 03CF     		ldmia	r7!, {r0, r1}
 347 0140 CCF81000 		str	r0, [ip, #16]	@ unaligned
 348 0144 CCF81410 		str	r1, [ip, #20]	@ unaligned
 349 0148 3A88     		ldrh	r2, [r7]	@ unaligned
 350 014a BB78     		ldrb	r3, [r7, #2]	@ zero_extendqisi2
 351 014c ACF81820 		strh	r2, [ip, #24]	@ unaligned
 352 0150 8CF81A30 		strb	r3, [ip, #26]
 287:Core/Src/freertos.c ****       snprintf(str, sizeof(str), "AT+CMGS=\"%s\"\r\n", Number);
 353              		.loc 1 287 7 view .LVU64
 354 0154 744B     		ldr	r3, .L48+92
 355 0156 754A     		ldr	r2, .L48+96
 356 0158 4946     		mov	r1, r9
 357 015a 07A8     		add	r0, sp, #28
 358 015c FFF7FEFF 		bl	snprintf
 359              	.LVL34:
 288:Core/Src/freertos.c ****       if (SIM800_SendCommand(str, ">", 1000) == SIM_R_OK)
 360              		.loc 1 288 7 view .LVU65
 361              		.loc 1 288 11 is_stmt 0 view .LVU66
 362 0160 4FF47A72 		mov	r2, #1000
 363 0164 7249     		ldr	r1, .L48+100
 364 0166 07A8     		add	r0, sp, #28
 365 0168 FFF7FEFF 		bl	SIM800_SendCommand
 366              	.LVL35:
 367              		.loc 1 288 10 view .LVU67
 368 016c 0028     		cmp	r0, #0
 369 016e 40F01F82 		bne	.L7
 289:Core/Src/freertos.c ****       {
 290:Core/Src/freertos.c ****         osDelay(200);
 370              		.loc 1 290 9 is_stmt 1 view .LVU68
 371 0172 C820     		movs	r0, #200
 372 0174 FFF7FEFF 		bl	osDelay
 373              	.LVL36:
 291:Core/Src/freertos.c ****         if (is_GPS_new == 1)
 374              		.loc 1 291 9 view .LVU69
 375              		.loc 1 291 24 is_stmt 0 view .LVU70
 376 0178 6E4B     		ldr	r3, .L48+104
 377 017a 1B78     		ldrb	r3, [r3]	@ zero_extendqisi2
 378              		.loc 1 291 12 view .LVU71
 379 017c 012B     		cmp	r3, #1
 380 017e 00F0F380 		beq	.L39
 292:Core/Src/freertos.c ****         {
 293:Core/Src/freertos.c ****           memset(str, '\0', sizeof(str));
ARM GAS  C:\Users\Vento\AppData\Local\Temp\cce5YO1z.s 			page 14


 294:Core/Src/freertos.c ****           if (myGPS.Time.Year != 1980)
 295:Core/Src/freertos.c ****             snprintf(str, sizeof(str), "Thoi diem: %d:%d:%d %d/%d/%d\n",  myGPS.Time.Hour,
 296:Core/Src/freertos.c ****                                                                           myGPS.Time.Minute,
 297:Core/Src/freertos.c ****                                                                           myGPS.Time.Second,
 298:Core/Src/freertos.c ****                                                                           myGPS.Time.Day,
 299:Core/Src/freertos.c ****                                                                           myGPS.Time.Month,
 300:Core/Src/freertos.c ****                                                                           myGPS.Time.Year);
 301:Core/Src/freertos.c ****           else
 302:Core/Src/freertos.c ****             snprintf(str, sizeof(str), "Thoi diem: %d:%d:%d %d/%d/%d\n", 0, 0, 0, 0, 0, 0);
 303:Core/Src/freertos.c ****           strcat(SMS, str);
 304:Core/Src/freertos.c ****           memset(str, '\0', sizeof(str));
 305:Core/Src/freertos.c ****           snprintf(str, sizeof(str), "Toa do: https://www.google.com/maps/search/?api=1&query=%s,%s
 306:Core/Src/freertos.c ****           strcat(SMS, str);
 307:Core/Src/freertos.c ****         }
 308:Core/Src/freertos.c ****         else
 309:Core/Src/freertos.c ****         {
 310:Core/Src/freertos.c ****           memset(str, '\0', sizeof(str));
 381              		.loc 1 310 11 is_stmt 1 view .LVU72
 382 0182 6422     		movs	r2, #100
 383 0184 0021     		movs	r1, #0
 384 0186 07A8     		add	r0, sp, #28
 385 0188 FFF7FEFF 		bl	memset
 386              	.LVL37:
 311:Core/Src/freertos.c ****           if (myGPS.Time.Year != 1980)
 387              		.loc 1 311 11 view .LVU73
 388              		.loc 1 311 25 is_stmt 0 view .LVU74
 389 018c 6A4B     		ldr	r3, .L48+108
 390 018e DA8A     		ldrh	r2, [r3, #22]
 391              		.loc 1 311 14 view .LVU75
 392 0190 40F2BC73 		movw	r3, #1980
 393 0194 9A42     		cmp	r2, r3
 394 0196 00F02781 		beq	.L12
 312:Core/Src/freertos.c ****             snprintf(str, sizeof(str), "Thoi diem: %d:%d:%d %d/%d/%d\n",  myGPS.Time.Hour,
 395              		.loc 1 312 13 is_stmt 1 view .LVU76
 396              		.loc 1 312 85 is_stmt 0 view .LVU77
 397 019a 674B     		ldr	r3, .L48+108
 313:Core/Src/freertos.c ****                                                                           myGPS.Time.Minute,
 398              		.loc 1 313 85 view .LVU78
 399 019c D97E     		ldrb	r1, [r3, #27]	@ zero_extendqisi2
 314:Core/Src/freertos.c ****                                                                           myGPS.Time.Second,
 400              		.loc 1 314 85 view .LVU79
 401 019e 187F     		ldrb	r0, [r3, #28]	@ zero_extendqisi2
 315:Core/Src/freertos.c ****                                                                           myGPS.Time.Day,
 402              		.loc 1 315 85 view .LVU80
 403 01a0 5C7E     		ldrb	r4, [r3, #25]	@ zero_extendqisi2
 404              	.LVL38:
 316:Core/Src/freertos.c ****                                                                           myGPS.Time.Month,
 405              		.loc 1 316 85 view .LVU81
 406 01a2 1F7E     		ldrb	r7, [r3, #24]	@ zero_extendqisi2
 312:Core/Src/freertos.c ****                                                                           myGPS.Time.Minute,
 407              		.loc 1 312 13 view .LVU82
 408 01a4 0492     		str	r2, [sp, #16]
 409 01a6 0397     		str	r7, [sp, #12]
 410 01a8 0294     		str	r4, [sp, #8]
 411 01aa 0190     		str	r0, [sp, #4]
 412 01ac 0091     		str	r1, [sp]
 413 01ae 9B7E     		ldrb	r3, [r3, #26]	@ zero_extendqisi2
ARM GAS  C:\Users\Vento\AppData\Local\Temp\cce5YO1z.s 			page 15


 414 01b0 624A     		ldr	r2, .L48+112
 415 01b2 6421     		movs	r1, #100
 416 01b4 07A8     		add	r0, sp, #28
 417 01b6 FFF7FEFF 		bl	snprintf
 418              	.LVL39:
 419              	.L13:
 317:Core/Src/freertos.c ****                                                                           myGPS.Time.Year);
 318:Core/Src/freertos.c ****           else
 319:Core/Src/freertos.c ****             snprintf(str, sizeof(str), "Thoi diem: %d:%d:%d %d/%d/%d\n", 0, 0, 0, 0, 0, 0);
 320:Core/Src/freertos.c ****           strcat(SMS, str);
 420              		.loc 1 320 11 is_stmt 1 view .LVU83
 421 01ba 594C     		ldr	r4, .L48+84
 422 01bc 07A9     		add	r1, sp, #28
 423 01be 2046     		mov	r0, r4
 424 01c0 FFF7FEFF 		bl	strcat
 425              	.LVL40:
 321:Core/Src/freertos.c ****           memset(str, '\0', sizeof(str));
 426              		.loc 1 321 11 view .LVU84
 427 01c4 6427     		movs	r7, #100
 428 01c6 3A46     		mov	r2, r7
 429 01c8 0021     		movs	r1, #0
 430 01ca 07A8     		add	r0, sp, #28
 431 01cc FFF7FEFF 		bl	memset
 432              	.LVL41:
 322:Core/Src/freertos.c ****           snprintf(str, sizeof(str), "Toa do lan cuoi: https://www.google.com/maps/search/?api=1&qu
 433              		.loc 1 322 11 view .LVU85
 434 01d0 5B4B     		ldr	r3, .L48+116
 435 01d2 1868     		ldr	r0, [r3]	@ float
 436 01d4 FFF7FEFF 		bl	__aeabi_f2d
 437              	.LVL42:
 438 01d8 CDE90201 		strd	r0, [sp, #8]
 439 01dc 594B     		ldr	r3, .L48+120
 440 01de 1868     		ldr	r0, [r3]	@ float
 441 01e0 FFF7FEFF 		bl	__aeabi_f2d
 442              	.LVL43:
 443 01e4 CDE90001 		strd	r0, [sp]
 444 01e8 574A     		ldr	r2, .L48+124
 445 01ea 3946     		mov	r1, r7
 446 01ec 07A8     		add	r0, sp, #28
 447 01ee FFF7FEFF 		bl	snprintf
 448              	.LVL44:
 323:Core/Src/freertos.c ****           strcat(SMS, str);
 449              		.loc 1 323 11 view .LVU86
 450 01f2 07A9     		add	r1, sp, #28
 451 01f4 2046     		mov	r0, r4
 452 01f6 FFF7FEFF 		bl	strcat
 453              	.LVL45:
 454              	.L11:
 324:Core/Src/freertos.c ****         }
 325:Core/Src/freertos.c ****         HAL_UART_Transmit_IT(UART_SIM800, (uint8_t *)SMS, (uint16_t)strlen(SMS));
 455              		.loc 1 325 9 view .LVU87
 456              		.loc 1 325 69 is_stmt 0 view .LVU88
 457 01fa 494F     		ldr	r7, .L48+84
 458 01fc 3846     		mov	r0, r7
 459 01fe FFF7FEFF 		bl	strlen
 460              	.LVL46:
 461              		.loc 1 325 9 view .LVU89
ARM GAS  C:\Users\Vento\AppData\Local\Temp\cce5YO1z.s 			page 16


 462 0202 394C     		ldr	r4, .L48+28
 463 0204 82B2     		uxth	r2, r0
 464 0206 3946     		mov	r1, r7
 465 0208 2046     		mov	r0, r4
 466 020a FFF7FEFF 		bl	HAL_UART_Transmit_IT
 467              	.LVL47:
 326:Core/Src/freertos.c ****         osDelay(200);
 468              		.loc 1 326 9 is_stmt 1 view .LVU90
 469 020e C820     		movs	r0, #200
 470 0210 FFF7FEFF 		bl	osDelay
 471              	.LVL48:
 327:Core/Src/freertos.c ****         // HAL_UART_Transmit_IT(UART_SIM800, (uint8_t *){26}, (uint16_t)1);
 328:Core/Src/freertos.c ****         huart1.Instance->DR = 0b00011010;
 472              		.loc 1 328 9 view .LVU91
 473              		.loc 1 328 15 is_stmt 0 view .LVU92
 474 0214 2368     		ldr	r3, [r4]
 475              		.loc 1 328 29 view .LVU93
 476 0216 1A22     		movs	r2, #26
 477 0218 5A60     		str	r2, [r3, #4]
 329:Core/Src/freertos.c ****         osDelay(200);
 478              		.loc 1 329 9 is_stmt 1 view .LVU94
 479 021a C820     		movs	r0, #200
 480 021c FFF7FEFF 		bl	osDelay
 481              	.LVL49:
 330:Core/Src/freertos.c ****         
 331:Core/Src/freertos.c ****         while (is_SMS_done == 0);
 482              		.loc 1 331 9 view .LVU95
 483              	.L14:
 484              		.loc 1 331 33 discriminator 1 view .LVU96
 485              		.loc 1 331 15 discriminator 1 view .LVU97
 486              		.loc 1 331 28 is_stmt 0 discriminator 1 view .LVU98
 487 0220 4A4B     		ldr	r3, .L48+128
 488 0222 1B78     		ldrb	r3, [r3]	@ zero_extendqisi2
 489              		.loc 1 331 15 discriminator 1 view .LVU99
 490 0224 002B     		cmp	r3, #0
 491 0226 FBD0     		beq	.L14
 332:Core/Src/freertos.c ****         is_SMS_done = 0;
 492              		.loc 1 332 9 is_stmt 1 view .LVU100
 493              		.loc 1 332 21 is_stmt 0 view .LVU101
 494 0228 0024     		movs	r4, #0
 495 022a 484B     		ldr	r3, .L48+128
 496 022c 1C70     		strb	r4, [r3]
 333:Core/Src/freertos.c ****         // HAL_GPIO_TogglePin(LED_GPIO_Port, LED_Pin);
 334:Core/Src/freertos.c ****         // GUI BAN TIN MQTT BENH NHAN NGA
 335:Core/Src/freertos.c ****         MQTT_Pub("medical_device/00000001/fall", "1");
 497              		.loc 1 335 9 is_stmt 1 view .LVU102
 498 022e 4849     		ldr	r1, .L48+132
 499 0230 3648     		ldr	r0, .L48+64
 500 0232 FFF7FEFF 		bl	MQTT_Pub
 501              	.LVL50:
 336:Core/Src/freertos.c ****         osDelay(500);
 502              		.loc 1 336 9 view .LVU103
 503 0236 4FF4FA70 		mov	r0, #500
 504 023a FFF7FEFF 		bl	osDelay
 505              	.LVL51:
 337:Core/Src/freertos.c ****         memset(SMS, '\0', sizeof(SMS));
 506              		.loc 1 337 9 view .LVU104
ARM GAS  C:\Users\Vento\AppData\Local\Temp\cce5YO1z.s 			page 17


 507 023e C822     		movs	r2, #200
 508 0240 2146     		mov	r1, r4
 509 0242 3748     		ldr	r0, .L48+84
 510 0244 FFF7FEFF 		bl	memset
 511              	.LVL52:
 338:Core/Src/freertos.c ****         if (is_GPS_new == 1)  snprintf(SMS, sizeof(SMS), "%s,%s", myGPS.cLat, myGPS.cLon);
 512              		.loc 1 338 9 view .LVU105
 513              		.loc 1 338 24 is_stmt 0 view .LVU106
 514 0248 3A4B     		ldr	r3, .L48+104
 515 024a 1B78     		ldrb	r3, [r3]	@ zero_extendqisi2
 516              		.loc 1 338 12 view .LVU107
 517 024c 012B     		cmp	r3, #1
 518 024e 00F0D780 		beq	.L40
 339:Core/Src/freertos.c ****         else  snprintf(SMS, sizeof(SMS), "%f,%f", Lon, Lat);
 519              		.loc 1 339 15 is_stmt 1 view .LVU108
 520 0252 3B4B     		ldr	r3, .L48+116
 521 0254 1868     		ldr	r0, [r3]	@ float
 522 0256 FFF7FEFF 		bl	__aeabi_f2d
 523              	.LVL53:
 524 025a CDE90201 		strd	r0, [sp, #8]
 525 025e 394B     		ldr	r3, .L48+120
 526 0260 1868     		ldr	r0, [r3]	@ float
 527 0262 FFF7FEFF 		bl	__aeabi_f2d
 528              	.LVL54:
 529 0266 CDE90001 		strd	r0, [sp]
 530 026a 3A4A     		ldr	r2, .L48+136
 531 026c C821     		movs	r1, #200
 532 026e 2C48     		ldr	r0, .L48+84
 533 0270 FFF7FEFF 		bl	snprintf
 534              	.LVL55:
 535              	.L16:
 340:Core/Src/freertos.c ****         MQTT_Pub("medical_device/00000001/loc", SMS);
 536              		.loc 1 340 9 view .LVU109
 537 0274 2A49     		ldr	r1, .L48+84
 538 0276 3848     		ldr	r0, .L48+140
 539 0278 FFF7FEFF 		bl	MQTT_Pub
 540              	.LVL56:
 341:Core/Src/freertos.c ****         osDelay(500);
 541              		.loc 1 341 9 view .LVU110
 542 027c 4FF4FA70 		mov	r0, #500
 543 0280 FFF7FEFF 		bl	osDelay
 544              	.LVL57:
 342:Core/Src/freertos.c ****         // HAL_GPIO_TogglePin(LED_GPIO_Port, LED_Pin);
 343:Core/Src/freertos.c ****         // HAL_UART_Transmit_IT(UART_SIM800, call, strlen(call));
 344:Core/Src/freertos.c ****         // GOI DIEN THOAI
 345:Core/Src/freertos.c ****         memset(str, '\0', sizeof(str));
 545              		.loc 1 345 9 view .LVU111
 546 0284 6424     		movs	r4, #100
 547 0286 2246     		mov	r2, r4
 548 0288 0021     		movs	r1, #0
 549 028a 07A8     		add	r0, sp, #28
 550 028c FFF7FEFF 		bl	memset
 551              	.LVL58:
 346:Core/Src/freertos.c ****         snprintf(str, sizeof(str), "ATD%s;\r\n", Number);
 552              		.loc 1 346 9 view .LVU112
 553 0290 254B     		ldr	r3, .L48+92
 554 0292 324A     		ldr	r2, .L48+144
ARM GAS  C:\Users\Vento\AppData\Local\Temp\cce5YO1z.s 			page 18


 555 0294 2146     		mov	r1, r4
 556 0296 07A8     		add	r0, sp, #28
 557 0298 FFF7FEFF 		bl	snprintf
 558              	.LVL59:
 347:Core/Src/freertos.c ****         SIM800_SendCommand(str, "OK\r\n", 2000);
 559              		.loc 1 347 9 view .LVU113
 560 029c 144C     		ldr	r4, .L48+36
 561 029e 4FF4FA62 		mov	r2, #2000
 562 02a2 2146     		mov	r1, r4
 563 02a4 07A8     		add	r0, sp, #28
 564 02a6 FFF7FEFF 		bl	SIM800_SendCommand
 565              	.LVL60:
 348:Core/Src/freertos.c ****         osDelay(30000);
 566              		.loc 1 348 9 view .LVU114
 567 02aa 47F23050 		movw	r0, #30000
 568 02ae FFF7FEFF 		bl	osDelay
 569              	.LVL61:
 349:Core/Src/freertos.c ****         SIM800_SendCommand("ATH\r\n", "OK\r\n", 1000);
 570              		.loc 1 349 9 view .LVU115
 571 02b2 4FF47A72 		mov	r2, #1000
 572 02b6 2146     		mov	r1, r4
 573 02b8 2948     		ldr	r0, .L48+148
 574 02ba FFF7FEFF 		bl	SIM800_SendCommand
 575              	.LVL62:
 350:Core/Src/freertos.c ****         // HAL_GPIO_TogglePin(LED_GPIO_Port, LED_Pin);
 351:Core/Src/freertos.c ****         time = HAL_GetTick();
 576              		.loc 1 351 9 view .LVU116
 577              		.loc 1 351 16 is_stmt 0 view .LVU117
 578 02be FFF7FEFF 		bl	HAL_GetTick
 579              	.LVL63:
 580 02c2 0446     		mov	r4, r0
 581              	.LVL64:
 352:Core/Src/freertos.c ****         is_fall = 0;
 582              		.loc 1 352 9 is_stmt 1 view .LVU118
 583              		.loc 1 352 17 is_stmt 0 view .LVU119
 584 02c4 274B     		ldr	r3, .L48+152
 585 02c6 0022     		movs	r2, #0
 586 02c8 1A70     		strb	r2, [r3]
 587 02ca 71E1     		b	.L7
 588              	.L49:
 589              		.align	2
 590              	.L48:
 591 02cc 00000000 		.word	SIM800
 592 02d0 00000000 		.word	.LC0
 593 02d4 0C000000 		.word	.LC1
 594 02d8 10000000 		.word	.LC2
 595 02dc 20000000 		.word	.LC3
 596 02e0 24000000 		.word	.LC4
 597 02e4 00000000 		.word	rx_data
 598 02e8 00000000 		.word	huart1
 599 02ec 00080140 		.word	1073809408
 600 02f0 28000000 		.word	.LC5
 601 02f4 30000000 		.word	.LC6
 602 02f8 00000000 		.word	.LANCHOR0
 603 02fc 38000000 		.word	.LC7
 604 0300 3C000000 		.word	.LC8
 605 0304 00000000 		.word	.LANCHOR1
ARM GAS  C:\Users\Vento\AppData\Local\Temp\cce5YO1z.s 			page 19


 606 0308 4C000000 		.word	.LC9
 607 030c 50000000 		.word	.LC10
 608 0310 00000000 		.word	SIM800_Batt
 609 0314 70000000 		.word	.LC11
 610 0318 94000000 		.word	.LC12
 611 031c 00000000 		.word	hiwdg
 612 0320 00000000 		.word	.LANCHOR3
 613 0324 B0000000 		.word	.LC13
 614 0328 00000000 		.word	.LANCHOR4
 615 032c CC000000 		.word	.LC14
 616 0330 DC000000 		.word	.LC15
 617 0334 00000000 		.word	.LANCHOR5
 618 0338 00000000 		.word	myGPS
 619 033c E0000000 		.word	.LC16
 620 0340 00000000 		.word	.LANCHOR6
 621 0344 00000000 		.word	.LANCHOR7
 622 0348 40010000 		.word	.LC18
 623 034c 00000000 		.word	.LANCHOR8
 624 0350 88010000 		.word	.LC19
 625 0354 94010000 		.word	.LC21
 626 0358 9C010000 		.word	.LC22
 627 035c B8010000 		.word	.LC23
 628 0360 C4010000 		.word	.LC24
 629 0364 00000000 		.word	.LANCHOR2
 630              	.LVL65:
 631              	.L39:
 293:Core/Src/freertos.c ****           if (myGPS.Time.Year != 1980)
 632              		.loc 1 293 11 is_stmt 1 view .LVU120
 633 0368 4A46     		mov	r2, r9
 634 036a 0021     		movs	r1, #0
 635 036c 07A8     		add	r0, sp, #28
 636 036e FFF7FEFF 		bl	memset
 637              	.LVL66:
 294:Core/Src/freertos.c ****             snprintf(str, sizeof(str), "Thoi diem: %d:%d:%d %d/%d/%d\n",  myGPS.Time.Hour,
 638              		.loc 1 294 11 view .LVU121
 294:Core/Src/freertos.c ****             snprintf(str, sizeof(str), "Thoi diem: %d:%d:%d %d/%d/%d\n",  myGPS.Time.Hour,
 639              		.loc 1 294 25 is_stmt 0 view .LVU122
 640 0372 A54B     		ldr	r3, .L50
 641 0374 DA8A     		ldrh	r2, [r3, #22]
 294:Core/Src/freertos.c ****             snprintf(str, sizeof(str), "Thoi diem: %d:%d:%d %d/%d/%d\n",  myGPS.Time.Hour,
 642              		.loc 1 294 14 view .LVU123
 643 0376 40F2BC73 		movw	r3, #1980
 644 037a 9A42     		cmp	r2, r3
 645 037c 28D0     		beq	.L9
 295:Core/Src/freertos.c ****                                                                           myGPS.Time.Minute,
 646              		.loc 1 295 13 is_stmt 1 view .LVU124
 295:Core/Src/freertos.c ****                                                                           myGPS.Time.Minute,
 647              		.loc 1 295 85 is_stmt 0 view .LVU125
 648 037e A24B     		ldr	r3, .L50
 296:Core/Src/freertos.c ****                                                                           myGPS.Time.Second,
 649              		.loc 1 296 85 view .LVU126
 650 0380 D97E     		ldrb	r1, [r3, #27]	@ zero_extendqisi2
 297:Core/Src/freertos.c ****                                                                           myGPS.Time.Day,
 651              		.loc 1 297 85 view .LVU127
 652 0382 187F     		ldrb	r0, [r3, #28]	@ zero_extendqisi2
 298:Core/Src/freertos.c ****                                                                           myGPS.Time.Month,
 653              		.loc 1 298 85 view .LVU128
ARM GAS  C:\Users\Vento\AppData\Local\Temp\cce5YO1z.s 			page 20


 654 0384 5C7E     		ldrb	r4, [r3, #25]	@ zero_extendqisi2
 655              	.LVL67:
 299:Core/Src/freertos.c ****                                                                           myGPS.Time.Year);
 656              		.loc 1 299 85 view .LVU129
 657 0386 1F7E     		ldrb	r7, [r3, #24]	@ zero_extendqisi2
 295:Core/Src/freertos.c ****                                                                           myGPS.Time.Minute,
 658              		.loc 1 295 13 view .LVU130
 659 0388 0492     		str	r2, [sp, #16]
 660 038a 0397     		str	r7, [sp, #12]
 661 038c 0294     		str	r4, [sp, #8]
 662 038e 0190     		str	r0, [sp, #4]
 663 0390 0091     		str	r1, [sp]
 664 0392 9B7E     		ldrb	r3, [r3, #26]	@ zero_extendqisi2
 665 0394 9D4A     		ldr	r2, .L50+4
 666 0396 4946     		mov	r1, r9
 667 0398 07A8     		add	r0, sp, #28
 668 039a FFF7FEFF 		bl	snprintf
 669              	.LVL68:
 670              	.L10:
 303:Core/Src/freertos.c ****           memset(str, '\0', sizeof(str));
 671              		.loc 1 303 11 is_stmt 1 view .LVU131
 672 039e 9C4C     		ldr	r4, .L50+8
 673 03a0 07A9     		add	r1, sp, #28
 674 03a2 2046     		mov	r0, r4
 675 03a4 FFF7FEFF 		bl	strcat
 676              	.LVL69:
 304:Core/Src/freertos.c ****           snprintf(str, sizeof(str), "Toa do: https://www.google.com/maps/search/?api=1&query=%s,%s
 677              		.loc 1 304 11 view .LVU132
 678 03a8 6427     		movs	r7, #100
 679 03aa 3A46     		mov	r2, r7
 680 03ac 0021     		movs	r1, #0
 681 03ae 07A8     		add	r0, sp, #28
 682 03b0 FFF7FEFF 		bl	memset
 683              	.LVL70:
 305:Core/Src/freertos.c ****           strcat(SMS, str);
 684              		.loc 1 305 11 view .LVU133
 685 03b4 974B     		ldr	r3, .L50+12
 686 03b6 03F10E02 		add	r2, r3, #14
 687 03ba 0092     		str	r2, [sp]
 688 03bc 964A     		ldr	r2, .L50+16
 689 03be 3946     		mov	r1, r7
 690 03c0 07A8     		add	r0, sp, #28
 691 03c2 FFF7FEFF 		bl	snprintf
 692              	.LVL71:
 306:Core/Src/freertos.c ****         }
 693              		.loc 1 306 11 view .LVU134
 694 03c6 07A9     		add	r1, sp, #28
 695 03c8 2046     		mov	r0, r4
 696 03ca FFF7FEFF 		bl	strcat
 697              	.LVL72:
 698 03ce 14E7     		b	.L11
 699              	.LVL73:
 700              	.L9:
 302:Core/Src/freertos.c ****           strcat(SMS, str);
 701              		.loc 1 302 13 view .LVU135
 702 03d0 0023     		movs	r3, #0
 703 03d2 0493     		str	r3, [sp, #16]
ARM GAS  C:\Users\Vento\AppData\Local\Temp\cce5YO1z.s 			page 21


 704 03d4 0393     		str	r3, [sp, #12]
 705 03d6 0293     		str	r3, [sp, #8]
 706 03d8 0193     		str	r3, [sp, #4]
 707 03da 0093     		str	r3, [sp]
 708 03dc 8B4A     		ldr	r2, .L50+4
 709 03de 6421     		movs	r1, #100
 710 03e0 07A8     		add	r0, sp, #28
 711 03e2 FFF7FEFF 		bl	snprintf
 712              	.LVL74:
 713 03e6 DAE7     		b	.L10
 714              	.L12:
 319:Core/Src/freertos.c ****           strcat(SMS, str);
 715              		.loc 1 319 13 view .LVU136
 716 03e8 0023     		movs	r3, #0
 717 03ea 0493     		str	r3, [sp, #16]
 718 03ec 0393     		str	r3, [sp, #12]
 719 03ee 0293     		str	r3, [sp, #8]
 720 03f0 0193     		str	r3, [sp, #4]
 721 03f2 0093     		str	r3, [sp]
 722 03f4 854A     		ldr	r2, .L50+4
 723 03f6 6421     		movs	r1, #100
 724 03f8 07A8     		add	r0, sp, #28
 725 03fa FFF7FEFF 		bl	snprintf
 726              	.LVL75:
 727 03fe DCE6     		b	.L13
 728              	.LVL76:
 729              	.L40:
 338:Core/Src/freertos.c ****         else  snprintf(SMS, sizeof(SMS), "%f,%f", Lon, Lat);
 730              		.loc 1 338 31 discriminator 1 view .LVU137
 731 0400 844B     		ldr	r3, .L50+12
 732 0402 03F10E02 		add	r2, r3, #14
 733 0406 0092     		str	r2, [sp]
 734 0408 844A     		ldr	r2, .L50+20
 735 040a C821     		movs	r1, #200
 736 040c 8048     		ldr	r0, .L50+8
 737 040e FFF7FEFF 		bl	snprintf
 738              	.LVL77:
 739 0412 2FE7     		b	.L16
 740              	.LVL78:
 741              	.L44:
 353:Core/Src/freertos.c ****       }
 354:Core/Src/freertos.c ****     }
 355:Core/Src/freertos.c ****     if ((HAL_GetTick() - time) >= 60000)
 356:Core/Src/freertos.c ****     {
 357:Core/Src/freertos.c ****       // ban tin ping moi 60s
 358:Core/Src/freertos.c ****       MQTT_Pub("medical_device/00000001/fall", "0");
 742              		.loc 1 358 7 view .LVU138
 743 0414 8249     		ldr	r1, .L50+24
 744 0416 8348     		ldr	r0, .L50+28
 745 0418 FFF7FEFF 		bl	MQTT_Pub
 746              	.LVL79:
 359:Core/Src/freertos.c ****       time = HAL_GetTick();
 747              		.loc 1 359 7 view .LVU139
 748              		.loc 1 359 14 is_stmt 0 view .LVU140
 749 041c FFF7FEFF 		bl	HAL_GetTick
 750              	.LVL80:
 751 0420 0446     		mov	r4, r0
ARM GAS  C:\Users\Vento\AppData\Local\Temp\cce5YO1z.s 			page 22


 752              	.LVL81:
 753              		.loc 1 359 14 view .LVU141
 754 0422 CDE0     		b	.L17
 755              	.LVL82:
 756              	.L45:
 360:Core/Src/freertos.c ****     }
 361:Core/Src/freertos.c ****     if ((HAL_GetTick() - timeBatt) >= 900000)
 362:Core/Src/freertos.c ****     {
 363:Core/Src/freertos.c ****       getBattery();
 757              		.loc 1 363 7 is_stmt 1 view .LVU142
 758 0424 FFF7FEFF 		bl	getBattery
 759              	.LVL83:
 364:Core/Src/freertos.c ****       MQTT_PubUint8("medical_device/00000001/SIMBattP", SIM800_Batt.BattPerc);
 760              		.loc 1 364 7 view .LVU143
 761 0428 7F4C     		ldr	r4, .L50+32
 762              	.LVL84:
 763              		.loc 1 364 7 is_stmt 0 view .LVU144
 764 042a 2178     		ldrb	r1, [r4]	@ zero_extendqisi2
 765 042c 7F48     		ldr	r0, .L50+36
 766 042e FFF7FEFF 		bl	MQTT_PubUint8
 767              	.LVL85:
 365:Core/Src/freertos.c ****       // MQTT_PubUint16("medical_device/00000001/SIMBattV", SIM800_Batt.BattVol);
 366:Core/Src/freertos.c ****       if ((SIM800_Batt.BattPerc <= 55) || (SIM800_Batt.BattVol <= 3850))
 768              		.loc 1 366 7 is_stmt 1 view .LVU145
 769              		.loc 1 366 23 is_stmt 0 view .LVU146
 770 0432 2378     		ldrb	r3, [r4]	@ zero_extendqisi2
 771              		.loc 1 366 10 view .LVU147
 772 0434 372B     		cmp	r3, #55
 773 0436 04D9     		bls	.L19
 774              		.loc 1 366 55 discriminator 1 view .LVU148
 775 0438 6288     		ldrh	r2, [r4, #2]
 776              		.loc 1 366 40 discriminator 1 view .LVU149
 777 043a 40F60A73 		movw	r3, #3850
 778 043e 9A42     		cmp	r2, r3
 779 0440 23D8     		bhi	.L20
 780              	.L19:
 367:Core/Src/freertos.c ****       {
 368:Core/Src/freertos.c ****         memset(str, '\0', sizeof(str));
 781              		.loc 1 368 9 is_stmt 1 view .LVU150
 782 0442 6424     		movs	r4, #100
 783 0444 2246     		mov	r2, r4
 784 0446 0021     		movs	r1, #0
 785 0448 07A8     		add	r0, sp, #28
 786 044a FFF7FEFF 		bl	memset
 787              	.LVL86:
 369:Core/Src/freertos.c ****         snprintf(str, sizeof(str), "AT+CMGS=\"%s\"\r\n", Number);
 788              		.loc 1 369 9 view .LVU151
 789 044e 784B     		ldr	r3, .L50+40
 790 0450 784A     		ldr	r2, .L50+44
 791 0452 2146     		mov	r1, r4
 792 0454 07A8     		add	r0, sp, #28
 793 0456 FFF7FEFF 		bl	snprintf
 794              	.LVL87:
 370:Core/Src/freertos.c ****         if (SIM800_SendCommand(str, ">", 1000) == SIM_R_OK)
 795              		.loc 1 370 9 view .LVU152
 796              		.loc 1 370 13 is_stmt 0 view .LVU153
 797 045a 4FF47A72 		mov	r2, #1000
ARM GAS  C:\Users\Vento\AppData\Local\Temp\cce5YO1z.s 			page 23


 798 045e 7649     		ldr	r1, .L50+48
 799 0460 07A8     		add	r0, sp, #28
 800 0462 FFF7FEFF 		bl	SIM800_SendCommand
 801              	.LVL88:
 802              		.loc 1 370 12 view .LVU154
 803 0466 B8B1     		cbz	r0, .L41
 804              	.L21:
 371:Core/Src/freertos.c ****         {
 372:Core/Src/freertos.c ****           osDelay(200);
 373:Core/Src/freertos.c ****           memset(str, '\0', sizeof(str));
 374:Core/Src/freertos.c ****           snprintf(str, sizeof(str), "Pin cua thiet bi dang o muc yeu (%i%), hay mang thiet bi ve t
 375:Core/Src/freertos.c ****           HAL_UART_Transmit_IT(UART_SIM800, (uint8_t *)str, (uint16_t)strlen(str));
 376:Core/Src/freertos.c ****           osDelay(200);
 377:Core/Src/freertos.c ****           huart1.Instance->DR = 0b00011010;
 378:Core/Src/freertos.c ****           osDelay(200);
 379:Core/Src/freertos.c ****           while (is_SMS_done == 0);
 380:Core/Src/freertos.c ****           is_SMS_done = 0;
 381:Core/Src/freertos.c ****         }
 382:Core/Src/freertos.c ****         HAL_GPIO_WritePin(SIM_PWRKEY_GPIO_Port, SIM_PWRKEY_Pin, 1);
 805              		.loc 1 382 9 is_stmt 1 view .LVU155
 806 0468 744C     		ldr	r4, .L50+52
 807 046a 0122     		movs	r2, #1
 808 046c 4FF48071 		mov	r1, #256
 809 0470 2046     		mov	r0, r4
 810 0472 FFF7FEFF 		bl	HAL_GPIO_WritePin
 811              	.LVL89:
 383:Core/Src/freertos.c ****         osDelay(2000);
 812              		.loc 1 383 9 view .LVU156
 813 0476 4FF4FA60 		mov	r0, #2000
 814 047a FFF7FEFF 		bl	osDelay
 815              	.LVL90:
 384:Core/Src/freertos.c ****         HAL_GPIO_WritePin(SIM_PWRKEY_GPIO_Port, SIM_PWRKEY_Pin, 0);
 816              		.loc 1 384 9 view .LVU157
 817 047e 0022     		movs	r2, #0
 818 0480 4FF48071 		mov	r1, #256
 819 0484 2046     		mov	r0, r4
 820 0486 FFF7FEFF 		bl	HAL_GPIO_WritePin
 821              	.LVL91:
 822              	.L20:
 385:Core/Src/freertos.c ****       }
 386:Core/Src/freertos.c ****       time = HAL_GetTick();
 823              		.loc 1 386 7 view .LVU158
 824              		.loc 1 386 14 is_stmt 0 view .LVU159
 825 048a FFF7FEFF 		bl	HAL_GetTick
 826              	.LVL92:
 827 048e 0446     		mov	r4, r0
 828              	.LVL93:
 387:Core/Src/freertos.c ****       timeBatt = HAL_GetTick();
 829              		.loc 1 387 7 is_stmt 1 view .LVU160
 830              		.loc 1 387 18 is_stmt 0 view .LVU161
 831 0490 FFF7FEFF 		bl	HAL_GetTick
 832              	.LVL94:
 833              		.loc 1 387 18 view .LVU162
 834 0494 0646     		mov	r6, r0
 835              	.LVL95:
 836              		.loc 1 387 18 view .LVU163
 837 0496 9AE0     		b	.L18
ARM GAS  C:\Users\Vento\AppData\Local\Temp\cce5YO1z.s 			page 24


 838              	.LVL96:
 839              	.L41:
 372:Core/Src/freertos.c ****           memset(str, '\0', sizeof(str));
 840              		.loc 1 372 11 is_stmt 1 view .LVU164
 841 0498 C820     		movs	r0, #200
 842 049a FFF7FEFF 		bl	osDelay
 843              	.LVL97:
 373:Core/Src/freertos.c ****           snprintf(str, sizeof(str), "Pin cua thiet bi dang o muc yeu (%i%), hay mang thiet bi ve t
 844              		.loc 1 373 11 view .LVU165
 845 049e 2246     		mov	r2, r4
 846 04a0 0021     		movs	r1, #0
 847 04a2 07A8     		add	r0, sp, #28
 848 04a4 FFF7FEFF 		bl	memset
 849              	.LVL98:
 374:Core/Src/freertos.c ****           HAL_UART_Transmit_IT(UART_SIM800, (uint8_t *)str, (uint16_t)strlen(str));
 850              		.loc 1 374 11 view .LVU166
 851 04a8 5F4B     		ldr	r3, .L50+32
 852 04aa 1B78     		ldrb	r3, [r3]	@ zero_extendqisi2
 853 04ac 644A     		ldr	r2, .L50+56
 854 04ae 2146     		mov	r1, r4
 855 04b0 07A8     		add	r0, sp, #28
 856 04b2 FFF7FEFF 		bl	snprintf
 857              	.LVL99:
 375:Core/Src/freertos.c ****           osDelay(200);
 858              		.loc 1 375 11 view .LVU167
 375:Core/Src/freertos.c ****           osDelay(200);
 859              		.loc 1 375 71 is_stmt 0 view .LVU168
 860 04b6 07A8     		add	r0, sp, #28
 861 04b8 FFF7FEFF 		bl	strlen
 862              	.LVL100:
 375:Core/Src/freertos.c ****           osDelay(200);
 863              		.loc 1 375 11 view .LVU169
 864 04bc 614C     		ldr	r4, .L50+60
 865 04be 82B2     		uxth	r2, r0
 866 04c0 07A9     		add	r1, sp, #28
 867 04c2 2046     		mov	r0, r4
 868 04c4 FFF7FEFF 		bl	HAL_UART_Transmit_IT
 869              	.LVL101:
 376:Core/Src/freertos.c ****           huart1.Instance->DR = 0b00011010;
 870              		.loc 1 376 11 is_stmt 1 view .LVU170
 871 04c8 C820     		movs	r0, #200
 872 04ca FFF7FEFF 		bl	osDelay
 873              	.LVL102:
 377:Core/Src/freertos.c ****           osDelay(200);
 874              		.loc 1 377 11 view .LVU171
 377:Core/Src/freertos.c ****           osDelay(200);
 875              		.loc 1 377 17 is_stmt 0 view .LVU172
 876 04ce 2368     		ldr	r3, [r4]
 377:Core/Src/freertos.c ****           osDelay(200);
 877              		.loc 1 377 31 view .LVU173
 878 04d0 1A22     		movs	r2, #26
 879 04d2 5A60     		str	r2, [r3, #4]
 378:Core/Src/freertos.c ****           while (is_SMS_done == 0);
 880              		.loc 1 378 11 is_stmt 1 view .LVU174
 881 04d4 C820     		movs	r0, #200
 882 04d6 FFF7FEFF 		bl	osDelay
 883              	.LVL103:
ARM GAS  C:\Users\Vento\AppData\Local\Temp\cce5YO1z.s 			page 25


 379:Core/Src/freertos.c ****           is_SMS_done = 0;
 884              		.loc 1 379 11 view .LVU175
 885              	.L22:
 379:Core/Src/freertos.c ****           is_SMS_done = 0;
 886              		.loc 1 379 35 discriminator 1 view .LVU176
 379:Core/Src/freertos.c ****           is_SMS_done = 0;
 887              		.loc 1 379 17 discriminator 1 view .LVU177
 379:Core/Src/freertos.c ****           is_SMS_done = 0;
 888              		.loc 1 379 30 is_stmt 0 discriminator 1 view .LVU178
 889 04da 5B4B     		ldr	r3, .L50+64
 890 04dc 1B78     		ldrb	r3, [r3]	@ zero_extendqisi2
 379:Core/Src/freertos.c ****           is_SMS_done = 0;
 891              		.loc 1 379 17 discriminator 1 view .LVU179
 892 04de 002B     		cmp	r3, #0
 893 04e0 FBD0     		beq	.L22
 380:Core/Src/freertos.c ****         }
 894              		.loc 1 380 11 is_stmt 1 view .LVU180
 380:Core/Src/freertos.c ****         }
 895              		.loc 1 380 23 is_stmt 0 view .LVU181
 896 04e2 594B     		ldr	r3, .L50+64
 897 04e4 0022     		movs	r2, #0
 898 04e6 1A70     		strb	r2, [r3]
 899 04e8 BEE7     		b	.L21
 900              	.LVL104:
 901              	.L46:
 388:Core/Src/freertos.c ****     }
 389:Core/Src/freertos.c ****     if (SIM800.mqttServer.connect == 0)
 390:Core/Src/freertos.c ****     {
 391:Core/Src/freertos.c ****       // ket noi lai MQTT
 392:Core/Src/freertos.c ****       MQTT_Init();
 902              		.loc 1 392 7 is_stmt 1 view .LVU182
 903 04ea FFF7FEFF 		bl	MQTT_Init
 904              	.LVL105:
 393:Core/Src/freertos.c ****       MQTT_Sub("medical_device/00000001/SDT");
 905              		.loc 1 393 7 view .LVU183
 906 04ee 5748     		ldr	r0, .L50+68
 907 04f0 FFF7FEFF 		bl	MQTT_Sub
 908              	.LVL106:
 394:Core/Src/freertos.c ****       osDelay(200);
 909              		.loc 1 394 7 view .LVU184
 910 04f4 C820     		movs	r0, #200
 911 04f6 FFF7FEFF 		bl	osDelay
 912              	.LVL107:
 395:Core/Src/freertos.c ****       MQTT_Pub("medical_device/00000001/fall", "0");
 913              		.loc 1 395 7 view .LVU185
 914 04fa 4949     		ldr	r1, .L50+24
 915 04fc 4948     		ldr	r0, .L50+28
 916 04fe FFF7FEFF 		bl	MQTT_Pub
 917              	.LVL108:
 396:Core/Src/freertos.c ****       time = HAL_GetTick();
 918              		.loc 1 396 7 view .LVU186
 919              		.loc 1 396 14 is_stmt 0 view .LVU187
 920 0502 FFF7FEFF 		bl	HAL_GetTick
 921              	.LVL109:
 922 0506 0446     		mov	r4, r0
 923              	.LVL110:
 924              		.loc 1 396 14 view .LVU188
ARM GAS  C:\Users\Vento\AppData\Local\Temp\cce5YO1z.s 			page 26


 925 0508 65E0     		b	.L23
 926              	.LVL111:
 927              	.L47:
 397:Core/Src/freertos.c ****     }
 398:Core/Src/freertos.c ****     // if (is_done == 1)
 399:Core/Src/freertos.c ****     // {
 400:Core/Src/freertos.c ****     //   // Da test xong, truyen diem test len Server
 401:Core/Src/freertos.c ****     //   is_done = 0;
 402:Core/Src/freertos.c ****     //   char str[2];
 403:Core/Src/freertos.c ****     //   sprintf(str, "%d\0", gScore);
 404:Core/Src/freertos.c ****     //   MQTT_Pub("mandevices/stroke-medical/human/test/score", str);
 405:Core/Src/freertos.c ****     //   HAL_GPIO_TogglePin(LED_GPIO_Port, LED_Pin);
 406:Core/Src/freertos.c ****     //   time = HAL_GetTick();
 407:Core/Src/freertos.c ****     //   is_test = 0;
 408:Core/Src/freertos.c ****     // }
 409:Core/Src/freertos.c ****     if ((HAL_GetTick() - GPStime) >= 15000)
 410:Core/Src/freertos.c ****     {
 411:Core/Src/freertos.c ****       // SIM800_SendCommand("AT+CGNSINF\r\n", "", 10000);
 412:Core/Src/freertos.c ****       getGPS();
 928              		.loc 1 412 7 is_stmt 1 view .LVU189
 929 050a FFF7FEFF 		bl	getGPS
 930              	.LVL112:
 413:Core/Src/freertos.c ****       if ((Lon != myGPS.Longitude) || (Lat != myGPS.Latitude))
 931              		.loc 1 413 7 view .LVU190
 932              		.loc 1 413 10 is_stmt 0 view .LVU191
 933 050e 504B     		ldr	r3, .L50+72
 934 0510 1968     		ldr	r1, [r3]	@ float
 935 0512 3D4B     		ldr	r3, .L50
 936 0514 986B     		ldr	r0, [r3, #56]	@ float
 937 0516 FFF7FEFF 		bl	__aeabi_fcmpeq
 938              	.LVL113:
 939 051a 30B1     		cbz	r0, .L25
 940              		.loc 1 413 36 discriminator 1 view .LVU192
 941 051c 4D4B     		ldr	r3, .L50+76
 942 051e 1968     		ldr	r1, [r3]	@ float
 943 0520 394B     		ldr	r3, .L50
 944 0522 986A     		ldr	r0, [r3, #40]	@ float
 945 0524 FFF7FEFF 		bl	__aeabi_fcmpeq
 946              	.LVL114:
 947 0528 B0B9     		cbnz	r0, .L35
 948              	.L25:
 414:Core/Src/freertos.c ****       {
 415:Core/Src/freertos.c ****         osTimerStop(SecTimerHandle);
 949              		.loc 1 415 9 is_stmt 1 view .LVU193
 950 052a 4B4D     		ldr	r5, .L50+80
 951              	.LVL115:
 952              		.loc 1 415 9 is_stmt 0 view .LVU194
 953 052c 2868     		ldr	r0, [r5]
 954 052e FFF7FEFF 		bl	osTimerStop
 955              	.LVL116:
 416:Core/Src/freertos.c ****         osTimerStart(SecTimerHandle, 500);
 956              		.loc 1 416 9 is_stmt 1 view .LVU195
 957 0532 4FF4FA71 		mov	r1, #500
 958 0536 2868     		ldr	r0, [r5]
 959 0538 FFF7FEFF 		bl	osTimerStart
 960              	.LVL117:
 417:Core/Src/freertos.c ****         is_GPS_new = 1;
ARM GAS  C:\Users\Vento\AppData\Local\Temp\cce5YO1z.s 			page 27


 961              		.loc 1 417 9 view .LVU196
 962              		.loc 1 417 20 is_stmt 0 view .LVU197
 963 053c 474B     		ldr	r3, .L50+84
 964 053e 0122     		movs	r2, #1
 965 0540 1A70     		strb	r2, [r3]
 418:Core/Src/freertos.c ****         Lon = myGPS.Longitude;
 966              		.loc 1 418 9 is_stmt 1 view .LVU198
 967              		.loc 1 418 20 is_stmt 0 view .LVU199
 968 0542 314B     		ldr	r3, .L50
 969 0544 996B     		ldr	r1, [r3, #56]	@ float
 970              		.loc 1 418 13 view .LVU200
 971 0546 424A     		ldr	r2, .L50+72
 972 0548 1160     		str	r1, [r2]	@ float
 419:Core/Src/freertos.c ****         Lat = myGPS.Latitude;
 973              		.loc 1 419 9 is_stmt 1 view .LVU201
 974              		.loc 1 419 20 is_stmt 0 view .LVU202
 975 054a 9A6A     		ldr	r2, [r3, #40]	@ float
 976              		.loc 1 419 13 view .LVU203
 977 054c 414B     		ldr	r3, .L50+76
 978 054e 1A60     		str	r2, [r3]	@ float
 979              	.L28:
 420:Core/Src/freertos.c ****       }
 421:Core/Src/freertos.c ****       else
 422:Core/Src/freertos.c ****       {
 423:Core/Src/freertos.c ****         osTimerStop(SecTimerHandle);
 424:Core/Src/freertos.c ****         osTimerStart(SecTimerHandle, 2000);
 425:Core/Src/freertos.c ****         is_GPS_new = 0;
 426:Core/Src/freertos.c ****       }
 427:Core/Src/freertos.c ****       // if ((myGPS.Latitude != 0) && (myGPS.Longitude != 0))
 428:Core/Src/freertos.c ****       // {
 429:Core/Src/freertos.c ****       //   memset(SMS, '\0', sizeof(SMS));
 430:Core/Src/freertos.c ****       //   snprintf(SMS, sizeof(SMS), "%s,%s", myGPS.cLat, myGPS.cLon);
 431:Core/Src/freertos.c ****       //   MQTT_Pub("mandevices/stroke-medical/human/fall/loc", SMS);
 432:Core/Src/freertos.c ****       //   time = HAL_GetTick();
 433:Core/Src/freertos.c ****       // }
 434:Core/Src/freertos.c ****       GPStime = HAL_GetTick();
 980              		.loc 1 434 7 is_stmt 1 view .LVU204
 981              		.loc 1 434 17 is_stmt 0 view .LVU205
 982 0550 FFF7FEFF 		bl	HAL_GetTick
 983              	.LVL118:
 984 0554 0546     		mov	r5, r0
 985              	.LVL119:
 986              		.loc 1 434 17 view .LVU206
 987 0556 45E0     		b	.L24
 988              	.LVL120:
 989              	.L35:
 423:Core/Src/freertos.c ****         osTimerStart(SecTimerHandle, 2000);
 990              		.loc 1 423 9 is_stmt 1 view .LVU207
 991 0558 3F4D     		ldr	r5, .L50+80
 992              	.LVL121:
 423:Core/Src/freertos.c ****         osTimerStart(SecTimerHandle, 2000);
 993              		.loc 1 423 9 is_stmt 0 view .LVU208
 994 055a 2868     		ldr	r0, [r5]
 995 055c FFF7FEFF 		bl	osTimerStop
 996              	.LVL122:
 424:Core/Src/freertos.c ****         is_GPS_new = 0;
 997              		.loc 1 424 9 is_stmt 1 view .LVU209
ARM GAS  C:\Users\Vento\AppData\Local\Temp\cce5YO1z.s 			page 28


 998 0560 4FF4FA61 		mov	r1, #2000
 999 0564 2868     		ldr	r0, [r5]
 1000 0566 FFF7FEFF 		bl	osTimerStart
 1001              	.LVL123:
 425:Core/Src/freertos.c ****       }
 1002              		.loc 1 425 9 view .LVU210
 425:Core/Src/freertos.c ****       }
 1003              		.loc 1 425 20 is_stmt 0 view .LVU211
 1004 056a 3C4B     		ldr	r3, .L50+84
 1005 056c 0022     		movs	r2, #0
 1006 056e 1A70     		strb	r2, [r3]
 1007 0570 EEE7     		b	.L28
 1008              	.LVL124:
 1009              	.L32:
 1010              	.LBB2:
 435:Core/Src/freertos.c ****     }
 436:Core/Src/freertos.c ****     // HAL_GPIO_TogglePin(LED_GPIO_Port, LED_Pin);
 437:Core/Src/freertos.c ****     if (SIM800.mqttReceive.newEvent == 1)
 438:Core/Src/freertos.c ****     {
 439:Core/Src/freertos.c ****       if (strstr(SIM800.mqttReceive.topic, "medical_device/00000001/SDT") != NULL)
 440:Core/Src/freertos.c ****       {
 441:Core/Src/freertos.c ****         uint8_t i = 0;
 442:Core/Src/freertos.c ****         while (SIM800.mqttReceive.payload[i] != '^')
 443:Core/Src/freertos.c ****         {
 444:Core/Src/freertos.c ****           Number[i] = SIM800.mqttReceive.payload[i];
 1011              		.loc 1 444 11 is_stmt 1 view .LVU212
 1012              		.loc 1 444 21 is_stmt 0 view .LVU213
 1013 0572 2F49     		ldr	r1, .L50+40
 1014 0574 CA54     		strb	r2, [r1, r3]
 445:Core/Src/freertos.c ****           i++;
 1015              		.loc 1 445 11 is_stmt 1 view .LVU214
 1016              		.loc 1 445 12 is_stmt 0 view .LVU215
 1017 0576 0133     		adds	r3, r3, #1
 1018              	.LVL125:
 1019              		.loc 1 445 12 view .LVU216
 1020 0578 DBB2     		uxtb	r3, r3
 1021              	.LVL126:
 1022              	.L30:
 442:Core/Src/freertos.c ****         {
 1023              		.loc 1 442 15 is_stmt 1 view .LVU217
 442:Core/Src/freertos.c ****         {
 1024              		.loc 1 442 42 is_stmt 0 view .LVU218
 1025 057a 1946     		mov	r1, r3
 1026 057c 384A     		ldr	r2, .L50+88
 1027 057e 1A44     		add	r2, r2, r3
 1028 0580 92F83020 		ldrb	r2, [r2, #48]	@ zero_extendqisi2
 442:Core/Src/freertos.c ****         {
 1029              		.loc 1 442 15 view .LVU219
 1030 0584 5E2A     		cmp	r2, #94
 1031 0586 F4D1     		bne	.L32
 446:Core/Src/freertos.c ****         }
 447:Core/Src/freertos.c ****         Number[i] = '\0';
 1032              		.loc 1 447 9 is_stmt 1 view .LVU220
 1033              		.loc 1 447 19 is_stmt 0 view .LVU221
 1034 0588 294B     		ldr	r3, .L50+40
 1035              	.LVL127:
 1036              		.loc 1 447 19 view .LVU222
ARM GAS  C:\Users\Vento\AppData\Local\Temp\cce5YO1z.s 			page 29


 1037 058a 0022     		movs	r2, #0
 1038 058c 5A54     		strb	r2, [r3, r1]
 1039              	.L31:
 1040              		.loc 1 447 19 view .LVU223
 1041              	.LBE2:
 448:Core/Src/freertos.c ****       }
 449:Core/Src/freertos.c ****       SIM800.mqttReceive.newEvent = 0;
 1042              		.loc 1 449 7 is_stmt 1 view .LVU224
 1043              		.loc 1 449 35 is_stmt 0 view .LVU225
 1044 058e 344B     		ldr	r3, .L50+88
 1045 0590 0022     		movs	r2, #0
 1046 0592 83F82420 		strb	r2, [r3, #36]
 1047              	.L29:
 450:Core/Src/freertos.c ****     }
 451:Core/Src/freertos.c ****     if (is_MPU_OK == 1)     HAL_IWDG_Refresh(&hiwdg);
 1048              		.loc 1 451 5 is_stmt 1 view .LVU226
 1049              		.loc 1 451 19 is_stmt 0 view .LVU227
 1050 0596 334B     		ldr	r3, .L50+92
 1051 0598 1B78     		ldrb	r3, [r3]	@ zero_extendqisi2
 1052              		.loc 1 451 8 view .LVU228
 1053 059a 012B     		cmp	r3, #1
 1054 059c 2FD0     		beq	.L42
 1055              	.L6:
 278:Core/Src/freertos.c ****   {
 1056              		.loc 1 278 3 is_stmt 1 view .LVU229
 280:Core/Src/freertos.c ****     if (is_fall == 1)
 1057              		.loc 1 280 5 view .LVU230
 1058 059e 4FF47A70 		mov	r0, #1000
 1059 05a2 FFF7FEFF 		bl	osDelay
 1060              	.LVL128:
 281:Core/Src/freertos.c ****     {
 1061              		.loc 1 281 5 view .LVU231
 281:Core/Src/freertos.c ****     {
 1062              		.loc 1 281 17 is_stmt 0 view .LVU232
 1063 05a6 304B     		ldr	r3, .L50+96
 1064 05a8 1B78     		ldrb	r3, [r3]	@ zero_extendqisi2
 281:Core/Src/freertos.c ****     {
 1065              		.loc 1 281 8 view .LVU233
 1066 05aa 012B     		cmp	r3, #1
 1067 05ac 3FF4A9AD 		beq	.L43
 1068              	.L7:
 355:Core/Src/freertos.c ****     {
 1069              		.loc 1 355 5 is_stmt 1 view .LVU234
 355:Core/Src/freertos.c ****     {
 1070              		.loc 1 355 10 is_stmt 0 view .LVU235
 1071 05b0 FFF7FEFF 		bl	HAL_GetTick
 1072              	.LVL129:
 355:Core/Src/freertos.c ****     {
 1073              		.loc 1 355 24 view .LVU236
 1074 05b4 001B     		subs	r0, r0, r4
 355:Core/Src/freertos.c ****     {
 1075              		.loc 1 355 8 view .LVU237
 1076 05b6 4EF65F23 		movw	r3, #59999
 1077 05ba 9842     		cmp	r0, r3
 1078 05bc 3FF62AAF 		bhi	.L44
 1079              	.L17:
 361:Core/Src/freertos.c ****     {
ARM GAS  C:\Users\Vento\AppData\Local\Temp\cce5YO1z.s 			page 30


 1080              		.loc 1 361 5 is_stmt 1 view .LVU238
 361:Core/Src/freertos.c ****     {
 1081              		.loc 1 361 10 is_stmt 0 view .LVU239
 1082 05c0 FFF7FEFF 		bl	HAL_GetTick
 1083              	.LVL130:
 361:Core/Src/freertos.c ****     {
 1084              		.loc 1 361 24 view .LVU240
 1085 05c4 801B     		subs	r0, r0, r6
 361:Core/Src/freertos.c ****     {
 1086              		.loc 1 361 8 view .LVU241
 1087 05c6 294B     		ldr	r3, .L50+100
 1088 05c8 9842     		cmp	r0, r3
 1089 05ca 3FF62BAF 		bhi	.L45
 1090              	.L18:
 389:Core/Src/freertos.c ****     {
 1091              		.loc 1 389 5 is_stmt 1 view .LVU242
 389:Core/Src/freertos.c ****     {
 1092              		.loc 1 389 26 is_stmt 0 view .LVU243
 1093 05ce 244B     		ldr	r3, .L50+88
 1094 05d0 9B7C     		ldrb	r3, [r3, #18]	@ zero_extendqisi2
 389:Core/Src/freertos.c ****     {
 1095              		.loc 1 389 8 view .LVU244
 1096 05d2 002B     		cmp	r3, #0
 1097 05d4 89D0     		beq	.L46
 1098              	.L23:
 409:Core/Src/freertos.c ****     {
 1099              		.loc 1 409 5 is_stmt 1 view .LVU245
 409:Core/Src/freertos.c ****     {
 1100              		.loc 1 409 10 is_stmt 0 view .LVU246
 1101 05d6 FFF7FEFF 		bl	HAL_GetTick
 1102              	.LVL131:
 409:Core/Src/freertos.c ****     {
 1103              		.loc 1 409 24 view .LVU247
 1104 05da 401B     		subs	r0, r0, r5
 409:Core/Src/freertos.c ****     {
 1105              		.loc 1 409 8 view .LVU248
 1106 05dc 43F69723 		movw	r3, #14999
 1107 05e0 9842     		cmp	r0, r3
 1108 05e2 92D8     		bhi	.L47
 1109              	.L24:
 437:Core/Src/freertos.c ****     {
 1110              		.loc 1 437 5 is_stmt 1 view .LVU249
 437:Core/Src/freertos.c ****     {
 1111              		.loc 1 437 27 is_stmt 0 view .LVU250
 1112 05e4 1E4B     		ldr	r3, .L50+88
 1113 05e6 93F82430 		ldrb	r3, [r3, #36]	@ zero_extendqisi2
 437:Core/Src/freertos.c ****     {
 1114              		.loc 1 437 8 view .LVU251
 1115 05ea 012B     		cmp	r3, #1
 1116 05ec D3D1     		bne	.L29
 439:Core/Src/freertos.c ****       {
 1117              		.loc 1 439 7 is_stmt 1 view .LVU252
 439:Core/Src/freertos.c ****       {
 1118              		.loc 1 439 11 is_stmt 0 view .LVU253
 1119 05ee 1749     		ldr	r1, .L50+68
 1120 05f0 1F48     		ldr	r0, .L50+104
 1121 05f2 FFF7FEFF 		bl	strstr
ARM GAS  C:\Users\Vento\AppData\Local\Temp\cce5YO1z.s 			page 31


 1122              	.LVL132:
 439:Core/Src/freertos.c ****       {
 1123              		.loc 1 439 10 view .LVU254
 1124 05f6 0028     		cmp	r0, #0
 1125 05f8 C9D0     		beq	.L31
 1126              	.LBB3:
 441:Core/Src/freertos.c ****         while (SIM800.mqttReceive.payload[i] != '^')
 1127              		.loc 1 441 17 view .LVU255
 1128 05fa 0023     		movs	r3, #0
 1129 05fc BDE7     		b	.L30
 1130              	.L42:
 1131              	.LBE3:
 1132              		.loc 1 451 29 is_stmt 1 discriminator 1 view .LVU256
 1133 05fe 1D48     		ldr	r0, .L50+108
 1134 0600 FFF7FEFF 		bl	HAL_IWDG_Refresh
 1135              	.LVL133:
 1136 0604 CBE7     		b	.L6
 1137              	.L51:
 1138 0606 00BF     		.align	2
 1139              	.L50:
 1140 0608 00000000 		.word	myGPS
 1141 060c E0000000 		.word	.LC16
 1142 0610 00000000 		.word	.LANCHOR3
 1143 0614 1E000000 		.word	myGPS+30
 1144 0618 00010000 		.word	.LC17
 1145 061c 8C010000 		.word	.LC20
 1146 0620 4C000000 		.word	.LC9
 1147 0624 50000000 		.word	.LC10
 1148 0628 00000000 		.word	SIM800_Batt
 1149 062c 70000000 		.word	.LC11
 1150 0630 00000000 		.word	.LANCHOR4
 1151 0634 CC000000 		.word	.LC14
 1152 0638 DC000000 		.word	.LC15
 1153 063c 00080140 		.word	1073809408
 1154 0640 CC010000 		.word	.LC25
 1155 0644 00000000 		.word	huart1
 1156 0648 00000000 		.word	.LANCHOR8
 1157 064c 94000000 		.word	.LC12
 1158 0650 00000000 		.word	.LANCHOR7
 1159 0654 00000000 		.word	.LANCHOR6
 1160 0658 00000000 		.word	.LANCHOR1
 1161 065c 00000000 		.word	.LANCHOR5
 1162 0660 00000000 		.word	SIM800
 1163 0664 00000000 		.word	.LANCHOR0
 1164 0668 00000000 		.word	.LANCHOR2
 1165 066c 9FBB0D00 		.word	899999
 1166 0670 74000000 		.word	SIM800+116
 1167 0674 00000000 		.word	hiwdg
 1168              		.cfi_endproc
 1169              	.LFE73:
 1171              		.global	__aeabi_dmul
 1172              		.global	__aeabi_dadd
 1173              		.global	__aeabi_d2f
 1174              		.global	__aeabi_dcmplt
 1175              		.section	.text.Sensor_Task,"ax",%progbits
 1176              		.align	1
 1177              		.global	Sensor_Task
ARM GAS  C:\Users\Vento\AppData\Local\Temp\cce5YO1z.s 			page 32


 1178              		.syntax unified
 1179              		.thumb
 1180              		.thumb_func
 1181              		.fpu softvfp
 1183              	Sensor_Task:
 1184              	.LVL134:
 1185              	.LFB74:
 452:Core/Src/freertos.c ****   }
 453:Core/Src/freertos.c ****   /* USER CODE END MQTT_Task */
 454:Core/Src/freertos.c **** }
 455:Core/Src/freertos.c **** 
 456:Core/Src/freertos.c **** /* USER CODE BEGIN Header_Sensor_Task */
 457:Core/Src/freertos.c **** /**
 458:Core/Src/freertos.c **** * @brief Function implementing the SENSORs thread.
 459:Core/Src/freertos.c **** * @param argument: Not used
 460:Core/Src/freertos.c **** * @retval None
 461:Core/Src/freertos.c **** */
 462:Core/Src/freertos.c **** /* USER CODE END Header_Sensor_Task */
 463:Core/Src/freertos.c **** void Sensor_Task(void *argument)
 464:Core/Src/freertos.c **** {
 1186              		.loc 1 464 1 view -0
 1187              		.cfi_startproc
 1188              		@ Volatile: function does not return.
 1189              		@ args = 0, pretend = 0, frame = 0
 1190              		@ frame_needed = 0, uses_anonymous_args = 0
 1191              		.loc 1 464 1 is_stmt 0 view .LVU258
 1192 0000 80B5     		push	{r7, lr}
 1193              	.LCFI2:
 1194              		.cfi_def_cfa_offset 8
 1195              		.cfi_offset 7, -8
 1196              		.cfi_offset 14, -4
 465:Core/Src/freertos.c ****   /* USER CODE BEGIN Sensor_Task */
 466:Core/Src/freertos.c **** 
 467:Core/Src/freertos.c ****   osDelay(1000);
 1197              		.loc 1 467 3 is_stmt 1 view .LVU259
 1198 0002 4FF47A70 		mov	r0, #1000
 1199              	.LVL135:
 1200              		.loc 1 467 3 is_stmt 0 view .LVU260
 1201 0006 FFF7FEFF 		bl	osDelay
 1202              	.LVL136:
 468:Core/Src/freertos.c ****   // Khoi tao cam bien mpu6050
 469:Core/Src/freertos.c ****   while(MPU6050_Init(&hi2c1) == MPU_nOK);
 1203              		.loc 1 469 3 is_stmt 1 view .LVU261
 1204              	.L53:
 1205              		.loc 1 469 41 discriminator 1 view .LVU262
 1206              		.loc 1 469 8 discriminator 1 view .LVU263
 1207              		.loc 1 469 9 is_stmt 0 discriminator 1 view .LVU264
 1208 000a 3548     		ldr	r0, .L66+8
 1209 000c FFF7FEFF 		bl	MPU6050_Init
 1210              	.LVL137:
 1211              		.loc 1 469 8 discriminator 1 view .LVU265
 1212 0010 0128     		cmp	r0, #1
 1213 0012 FAD0     		beq	.L53
 1214 0014 10E0     		b	.L61
 1215              	.L56:
 470:Core/Src/freertos.c ****   // osTimerStart(SecTimerHandle, 1000);
 471:Core/Src/freertos.c ****   
ARM GAS  C:\Users\Vento\AppData\Local\Temp\cce5YO1z.s 			page 33


 472:Core/Src/freertos.c ****   // float data[20];
 473:Core/Src/freertos.c ****   /* Infinite loop */
 474:Core/Src/freertos.c ****   for(;;)
 475:Core/Src/freertos.c ****   {
 476:Core/Src/freertos.c ****     // READ SENSOR
 477:Core/Src/freertos.c ****     MPU6050_Read_Accel(&hi2c1, &MPU6050);
 478:Core/Src/freertos.c **** 
 479:Core/Src/freertos.c ****     // CALCULATE GRAVITY
 480:Core/Src/freertos.c ****     gGravity = sqrt((MPU6050.Ax)*(MPU6050.Ax) + (MPU6050.Ay)*(MPU6050.Ay) + (MPU6050.Az)*(MPU6050.A
 481:Core/Src/freertos.c **** 
 482:Core/Src/freertos.c ****     if (gGravity == 0)
 483:Core/Src/freertos.c ****     {
 484:Core/Src/freertos.c ****       // Gravity = 0 la cam bien k chay, smthg went wrong
 485:Core/Src/freertos.c ****       is_MPU_OK = 0;
 486:Core/Src/freertos.c ****     }
 487:Core/Src/freertos.c ****     if ((gGravity < 0.30) && (is_fall == 0) && (gGravity != 0))
 488:Core/Src/freertos.c ****     {
 489:Core/Src/freertos.c ****       // CHECK NGA, BENH NHAN DA NGA
 490:Core/Src/freertos.c ****       is_fall = 1;
 491:Core/Src/freertos.c ****       // HAL_GPIO_TogglePin(LED_GPIO_Port, LED_Pin);
 492:Core/Src/freertos.c ****       // vTaskResume(MQTTHandle);
 493:Core/Src/freertos.c ****     }
 494:Core/Src/freertos.c ****     if (is_MPU_OK == 0)
 1216              		.loc 1 494 5 is_stmt 1 view .LVU266
 1217              		.loc 1 494 19 is_stmt 0 view .LVU267
 1218 0016 334B     		ldr	r3, .L66+12
 1219 0018 1B78     		ldrb	r3, [r3]	@ zero_extendqisi2
 1220              		.loc 1 494 8 view .LVU268
 1221 001a 3BB9     		cbnz	r3, .L59
 1222              	.L60:
 495:Core/Src/freertos.c ****     {
 496:Core/Src/freertos.c ****       while(MPU6050_Init(&hi2c1) == MPU_nOK);
 1223              		.loc 1 496 45 is_stmt 1 discriminator 1 view .LVU269
 1224              		.loc 1 496 12 discriminator 1 view .LVU270
 1225              		.loc 1 496 13 is_stmt 0 discriminator 1 view .LVU271
 1226 001c 3048     		ldr	r0, .L66+8
 1227 001e FFF7FEFF 		bl	MPU6050_Init
 1228              	.LVL138:
 1229              		.loc 1 496 12 discriminator 1 view .LVU272
 1230 0022 0128     		cmp	r0, #1
 1231 0024 FAD0     		beq	.L60
 497:Core/Src/freertos.c ****       is_MPU_OK = 1;
 1232              		.loc 1 497 7 is_stmt 1 view .LVU273
 1233              		.loc 1 497 17 is_stmt 0 view .LVU274
 1234 0026 2F4B     		ldr	r3, .L66+12
 1235 0028 0122     		movs	r2, #1
 1236 002a 1A70     		strb	r2, [r3]
 1237              	.L59:
 498:Core/Src/freertos.c ****     }
 499:Core/Src/freertos.c ****     // if ((is_test == 1) && (is_busy == 0))
 500:Core/Src/freertos.c ****     // {
 501:Core/Src/freertos.c ****     //   // TEST
 502:Core/Src/freertos.c ****     //   HAL_GPIO_TogglePin(LED_GPIO_Port, LED_Pin);
 503:Core/Src/freertos.c ****     //   while(MPU6050_Init(&hi2c1) == MPU_nOK);
 504:Core/Src/freertos.c ****     //   for (uint8_t i = 0; i < 20; i++)
 505:Core/Src/freertos.c ****     //   {
 506:Core/Src/freertos.c ****     //     MPU6050_Read_Accel(&hi2c1, &MPU6050);
ARM GAS  C:\Users\Vento\AppData\Local\Temp\cce5YO1z.s 			page 34


 507:Core/Src/freertos.c ****     //     data[i] = MPU6050.Az;
 508:Core/Src/freertos.c ****     //     osDelay(500);
 509:Core/Src/freertos.c ****     //   }
 510:Core/Src/freertos.c ****     //   uint8_t lowestAngelPos = 0;
 511:Core/Src/freertos.c ****     //   float error = 0;
 512:Core/Src/freertos.c ****     //   for(uint8_t i = 1; i < 20; i++)
 513:Core/Src/freertos.c ****     //   {
 514:Core/Src/freertos.c ****     //     error = data[lowestAngelPos] - data[i];
 515:Core/Src/freertos.c ****     //     if (error >= 0.03) 
 516:Core/Src/freertos.c ****     //     {
 517:Core/Src/freertos.c ****     //       lowestAngelPos = i;
 518:Core/Src/freertos.c ****     //     }
 519:Core/Src/freertos.c ****     //   }
 520:Core/Src/freertos.c ****     //   if (data[lowestAngelPos] > 0.9)
 521:Core/Src/freertos.c ****     //   {
 522:Core/Src/freertos.c ****     //     gScore = 0;
 523:Core/Src/freertos.c ****     //   }
 524:Core/Src/freertos.c ****     //   else
 525:Core/Src/freertos.c ****     //   {
 526:Core/Src/freertos.c ****     //     if (((data[lowestAngelPos] < 0.6) && (lowestAngelPos <= 10)) || (data[lowestAngelPos] < 
 527:Core/Src/freertos.c ****     //     {
 528:Core/Src/freertos.c ****     //       gScore = 3;
 529:Core/Src/freertos.c ****     //     }
 530:Core/Src/freertos.c ****     //     else if (lowestAngelPos < 10)
 531:Core/Src/freertos.c ****     //     {
 532:Core/Src/freertos.c ****     //       gScore = 1;
 533:Core/Src/freertos.c ****     //     }
 534:Core/Src/freertos.c ****     //     else
 535:Core/Src/freertos.c ****     //     {
 536:Core/Src/freertos.c ****     //       gScore = 2;
 537:Core/Src/freertos.c ****     //     }
 538:Core/Src/freertos.c ****     //   }
 539:Core/Src/freertos.c ****     //   uint8_t dead = 1;
 540:Core/Src/freertos.c ****     //   for(uint8_t i = 0; i < 20; i++)
 541:Core/Src/freertos.c ****     //   {
 542:Core/Src/freertos.c ****     //     if(data[i] > 0.25)
 543:Core/Src/freertos.c ****     //     {
 544:Core/Src/freertos.c ****     //       dead = 0;
 545:Core/Src/freertos.c ****     //     }
 546:Core/Src/freertos.c ****     //   }
 547:Core/Src/freertos.c ****     //   if(dead)
 548:Core/Src/freertos.c ****     //   {
 549:Core/Src/freertos.c ****     //     gScore = 4;
 550:Core/Src/freertos.c ****     //   }
 551:Core/Src/freertos.c ****     //   is_done = 1;
 552:Core/Src/freertos.c ****     //   HAL_GPIO_TogglePin(LED_GPIO_Port, LED_Pin);
 553:Core/Src/freertos.c ****     // }
 554:Core/Src/freertos.c **** 
 555:Core/Src/freertos.c ****     // RESET CLK
 556:Core/Src/freertos.c ****     HAL_IWDG_Refresh(&hiwdg);
 1238              		.loc 1 556 5 is_stmt 1 view .LVU275
 1239 002c 2E48     		ldr	r0, .L66+16
 1240 002e FFF7FEFF 		bl	HAL_IWDG_Refresh
 1241              	.LVL139:
 557:Core/Src/freertos.c ****     osDelay(10);
 1242              		.loc 1 557 5 view .LVU276
 1243 0032 0A20     		movs	r0, #10
ARM GAS  C:\Users\Vento\AppData\Local\Temp\cce5YO1z.s 			page 35


 1244 0034 FFF7FEFF 		bl	osDelay
 1245              	.LVL140:
 474:Core/Src/freertos.c ****   {
 1246              		.loc 1 474 8 view .LVU277
 1247              	.L61:
 474:Core/Src/freertos.c ****   {
 1248              		.loc 1 474 3 view .LVU278
 477:Core/Src/freertos.c **** 
 1249              		.loc 1 477 5 view .LVU279
 1250 0038 2C4C     		ldr	r4, .L66+20
 1251 003a 2146     		mov	r1, r4
 1252 003c 2848     		ldr	r0, .L66+8
 1253 003e FFF7FEFF 		bl	MPU6050_Read_Accel
 1254              	.LVL141:
 480:Core/Src/freertos.c **** 
 1255              		.loc 1 480 5 view .LVU280
 480:Core/Src/freertos.c **** 
 1256              		.loc 1 480 29 is_stmt 0 view .LVU281
 1257 0042 D4E90201 		ldrd	r0, [r4, #8]
 480:Core/Src/freertos.c **** 
 1258              		.loc 1 480 33 view .LVU282
 1259 0046 0246     		mov	r2, r0
 1260 0048 0B46     		mov	r3, r1
 1261 004a FFF7FEFF 		bl	__aeabi_dmul
 1262              	.LVL142:
 1263 004e 0646     		mov	r6, r0
 1264 0050 0F46     		mov	r7, r1
 480:Core/Src/freertos.c **** 
 1265              		.loc 1 480 57 view .LVU283
 1266 0052 D4E90401 		ldrd	r0, [r4, #16]
 480:Core/Src/freertos.c **** 
 1267              		.loc 1 480 61 view .LVU284
 1268 0056 0246     		mov	r2, r0
 1269 0058 0B46     		mov	r3, r1
 1270 005a FFF7FEFF 		bl	__aeabi_dmul
 1271              	.LVL143:
 1272 005e 0246     		mov	r2, r0
 1273 0060 0B46     		mov	r3, r1
 480:Core/Src/freertos.c **** 
 1274              		.loc 1 480 47 view .LVU285
 1275 0062 3046     		mov	r0, r6
 1276 0064 3946     		mov	r1, r7
 1277 0066 FFF7FEFF 		bl	__aeabi_dadd
 1278              	.LVL144:
 1279 006a 0646     		mov	r6, r0
 1280 006c 0F46     		mov	r7, r1
 480:Core/Src/freertos.c **** 
 1281              		.loc 1 480 85 view .LVU286
 1282 006e D4E90601 		ldrd	r0, [r4, #24]
 480:Core/Src/freertos.c **** 
 1283              		.loc 1 480 89 view .LVU287
 1284 0072 0246     		mov	r2, r0
 1285 0074 0B46     		mov	r3, r1
 1286 0076 FFF7FEFF 		bl	__aeabi_dmul
 1287              	.LVL145:
 1288 007a 0246     		mov	r2, r0
 1289 007c 0B46     		mov	r3, r1
ARM GAS  C:\Users\Vento\AppData\Local\Temp\cce5YO1z.s 			page 36


 480:Core/Src/freertos.c **** 
 1290              		.loc 1 480 16 view .LVU288
 1291 007e 3046     		mov	r0, r6
 1292 0080 3946     		mov	r1, r7
 1293 0082 FFF7FEFF 		bl	__aeabi_dadd
 1294              	.LVL146:
 1295 0086 FFF7FEFF 		bl	sqrt
 1296              	.LVL147:
 1297 008a FFF7FEFF 		bl	__aeabi_d2f
 1298              	.LVL148:
 1299 008e 0446     		mov	r4, r0
 480:Core/Src/freertos.c **** 
 1300              		.loc 1 480 14 view .LVU289
 1301 0090 174B     		ldr	r3, .L66+24
 1302 0092 1860     		str	r0, [r3]	@ float
 482:Core/Src/freertos.c ****     {
 1303              		.loc 1 482 5 is_stmt 1 view .LVU290
 482:Core/Src/freertos.c ****     {
 1304              		.loc 1 482 8 is_stmt 0 view .LVU291
 1305 0094 0021     		movs	r1, #0
 1306 0096 FFF7FEFF 		bl	__aeabi_fcmpeq
 1307              	.LVL149:
 1308 009a 10B1     		cbz	r0, .L54
 485:Core/Src/freertos.c ****     }
 1309              		.loc 1 485 7 is_stmt 1 view .LVU292
 485:Core/Src/freertos.c ****     }
 1310              		.loc 1 485 17 is_stmt 0 view .LVU293
 1311 009c 114B     		ldr	r3, .L66+12
 1312 009e 0022     		movs	r2, #0
 1313 00a0 1A70     		strb	r2, [r3]
 1314              	.L54:
 487:Core/Src/freertos.c ****     {
 1315              		.loc 1 487 5 is_stmt 1 view .LVU294
 487:Core/Src/freertos.c ****     {
 1316              		.loc 1 487 19 is_stmt 0 view .LVU295
 1317 00a2 2046     		mov	r0, r4
 1318 00a4 FFF7FEFF 		bl	__aeabi_f2d
 1319              	.LVL150:
 487:Core/Src/freertos.c ****     {
 1320              		.loc 1 487 8 view .LVU296
 1321 00a8 0BA3     		adr	r3, .L66
 1322 00aa D3E90023 		ldrd	r2, [r3]
 1323 00ae FFF7FEFF 		bl	__aeabi_dcmplt
 1324              	.LVL151:
 1325 00b2 0028     		cmp	r0, #0
 1326 00b4 AFD0     		beq	.L56
 487:Core/Src/freertos.c ****     {
 1327              		.loc 1 487 39 discriminator 1 view .LVU297
 1328 00b6 0F4B     		ldr	r3, .L66+28
 1329 00b8 1B78     		ldrb	r3, [r3]	@ zero_extendqisi2
 487:Core/Src/freertos.c ****     {
 1330              		.loc 1 487 27 discriminator 1 view .LVU298
 1331 00ba 002B     		cmp	r3, #0
 1332 00bc ABD1     		bne	.L56
 487:Core/Src/freertos.c ****     {
 1333              		.loc 1 487 45 discriminator 2 view .LVU299
 1334 00be 0021     		movs	r1, #0
ARM GAS  C:\Users\Vento\AppData\Local\Temp\cce5YO1z.s 			page 37


 1335 00c0 2046     		mov	r0, r4
 1336 00c2 FFF7FEFF 		bl	__aeabi_fcmpeq
 1337              	.LVL152:
 1338 00c6 0028     		cmp	r0, #0
 1339 00c8 A5D1     		bne	.L56
 490:Core/Src/freertos.c ****       // HAL_GPIO_TogglePin(LED_GPIO_Port, LED_Pin);
 1340              		.loc 1 490 7 is_stmt 1 view .LVU300
 490:Core/Src/freertos.c ****       // HAL_GPIO_TogglePin(LED_GPIO_Port, LED_Pin);
 1341              		.loc 1 490 15 is_stmt 0 view .LVU301
 1342 00ca 0A4B     		ldr	r3, .L66+28
 1343 00cc 0122     		movs	r2, #1
 1344 00ce 1A70     		strb	r2, [r3]
 1345 00d0 A1E7     		b	.L56
 1346              	.L67:
 1347 00d2 00BFAFF3 		.align	3
 1347      0080
 1348              	.L66:
 1349 00d8 33333333 		.word	858993459
 1350 00dc 3333D33F 		.word	1070805811
 1351 00e0 00000000 		.word	hi2c1
 1352 00e4 00000000 		.word	.LANCHOR0
 1353 00e8 00000000 		.word	hiwdg
 1354 00ec 00000000 		.word	.LANCHOR9
 1355 00f0 00000000 		.word	.LANCHOR10
 1356 00f4 00000000 		.word	.LANCHOR2
 1357              		.cfi_endproc
 1358              	.LFE74:
 1360              		.section	.text.Callback01,"ax",%progbits
 1361              		.align	1
 1362              		.global	Callback01
 1363              		.syntax unified
 1364              		.thumb
 1365              		.thumb_func
 1366              		.fpu softvfp
 1368              	Callback01:
 1369              	.LVL153:
 1370              	.LFB75:
 558:Core/Src/freertos.c ****   }
 559:Core/Src/freertos.c ****   /* USER CODE END Sensor_Task */
 560:Core/Src/freertos.c **** }
 561:Core/Src/freertos.c **** 
 562:Core/Src/freertos.c **** /* Callback01 function */
 563:Core/Src/freertos.c **** void Callback01(void *argument)
 564:Core/Src/freertos.c **** {
 1371              		.loc 1 564 1 is_stmt 1 view -0
 1372              		.cfi_startproc
 1373              		@ args = 0, pretend = 0, frame = 0
 1374              		@ frame_needed = 0, uses_anonymous_args = 0
 1375              		.loc 1 564 1 is_stmt 0 view .LVU303
 1376 0000 08B5     		push	{r3, lr}
 1377              	.LCFI3:
 1378              		.cfi_def_cfa_offset 8
 1379              		.cfi_offset 3, -8
 1380              		.cfi_offset 14, -4
 565:Core/Src/freertos.c ****   /* USER CODE BEGIN Callback01 */
 566:Core/Src/freertos.c ****   // TIMER 1s RESET CLK
 567:Core/Src/freertos.c ****   HAL_GPIO_TogglePin(LED_GPIO_Port, LED_Pin);
ARM GAS  C:\Users\Vento\AppData\Local\Temp\cce5YO1z.s 			page 38


 1381              		.loc 1 567 3 is_stmt 1 view .LVU304
 1382 0002 4FF40051 		mov	r1, #8192
 1383 0006 0648     		ldr	r0, .L72
 1384              	.LVL154:
 1385              		.loc 1 567 3 is_stmt 0 view .LVU305
 1386 0008 FFF7FEFF 		bl	HAL_GPIO_TogglePin
 1387              	.LVL155:
 568:Core/Src/freertos.c ****   if (is_MPU_OK == 1)     HAL_IWDG_Refresh(&hiwdg);
 1388              		.loc 1 568 3 is_stmt 1 view .LVU306
 1389              		.loc 1 568 17 is_stmt 0 view .LVU307
 1390 000c 054B     		ldr	r3, .L72+4
 1391 000e 1B78     		ldrb	r3, [r3]	@ zero_extendqisi2
 1392              		.loc 1 568 6 view .LVU308
 1393 0010 012B     		cmp	r3, #1
 1394 0012 00D0     		beq	.L71
 1395              	.L68:
 569:Core/Src/freertos.c ****   /* USER CODE END Callback01 */
 570:Core/Src/freertos.c **** }
 1396              		.loc 1 570 1 view .LVU309
 1397 0014 08BD     		pop	{r3, pc}
 1398              	.L71:
 568:Core/Src/freertos.c ****   if (is_MPU_OK == 1)     HAL_IWDG_Refresh(&hiwdg);
 1399              		.loc 1 568 27 is_stmt 1 discriminator 1 view .LVU310
 1400 0016 0448     		ldr	r0, .L72+8
 1401 0018 FFF7FEFF 		bl	HAL_IWDG_Refresh
 1402              	.LVL156:
 1403              		.loc 1 570 1 is_stmt 0 discriminator 1 view .LVU311
 1404 001c FAE7     		b	.L68
 1405              	.L73:
 1406 001e 00BF     		.align	2
 1407              	.L72:
 1408 0020 00100140 		.word	1073811456
 1409 0024 00000000 		.word	.LANCHOR0
 1410 0028 00000000 		.word	hiwdg
 1411              		.cfi_endproc
 1412              	.LFE75:
 1414              		.section	.text.MX_FREERTOS_Init,"ax",%progbits
 1415              		.align	1
 1416              		.global	MX_FREERTOS_Init
 1417              		.syntax unified
 1418              		.thumb
 1419              		.thumb_func
 1420              		.fpu softvfp
 1422              	MX_FREERTOS_Init:
 1423              	.LFB72:
 137:Core/Src/freertos.c ****   /* USER CODE BEGIN Init */
 1424              		.loc 1 137 29 is_stmt 1 view -0
 1425              		.cfi_startproc
 1426              		@ args = 0, pretend = 0, frame = 0
 1427              		@ frame_needed = 0, uses_anonymous_args = 0
 1428 0000 08B5     		push	{r3, lr}
 1429              	.LCFI4:
 1430              		.cfi_def_cfa_offset 8
 1431              		.cfi_offset 3, -8
 1432              		.cfi_offset 14, -4
 152:Core/Src/freertos.c **** 
 1433              		.loc 1 152 3 view .LVU313
ARM GAS  C:\Users\Vento\AppData\Local\Temp\cce5YO1z.s 			page 39


 152:Core/Src/freertos.c **** 
 1434              		.loc 1 152 20 is_stmt 0 view .LVU314
 1435 0002 0B4B     		ldr	r3, .L76
 1436 0004 0022     		movs	r2, #0
 1437 0006 0121     		movs	r1, #1
 1438 0008 0A48     		ldr	r0, .L76+4
 1439 000a FFF7FEFF 		bl	osTimerNew
 1440              	.LVL157:
 152:Core/Src/freertos.c **** 
 1441              		.loc 1 152 18 view .LVU315
 1442 000e 0A4B     		ldr	r3, .L76+8
 1443 0010 1860     		str	r0, [r3]
 164:Core/Src/freertos.c **** 
 1444              		.loc 1 164 3 is_stmt 1 view .LVU316
 164:Core/Src/freertos.c **** 
 1445              		.loc 1 164 16 is_stmt 0 view .LVU317
 1446 0012 0A4A     		ldr	r2, .L76+12
 1447 0014 0021     		movs	r1, #0
 1448 0016 0A48     		ldr	r0, .L76+16
 1449 0018 FFF7FEFF 		bl	osThreadNew
 1450              	.LVL158:
 164:Core/Src/freertos.c **** 
 1451              		.loc 1 164 14 view .LVU318
 1452 001c 094B     		ldr	r3, .L76+20
 1453 001e 1860     		str	r0, [r3]
 167:Core/Src/freertos.c **** 
 1454              		.loc 1 167 3 is_stmt 1 view .LVU319
 167:Core/Src/freertos.c **** 
 1455              		.loc 1 167 19 is_stmt 0 view .LVU320
 1456 0020 094A     		ldr	r2, .L76+24
 1457 0022 0021     		movs	r1, #0
 1458 0024 0948     		ldr	r0, .L76+28
 1459 0026 FFF7FEFF 		bl	osThreadNew
 1460              	.LVL159:
 167:Core/Src/freertos.c **** 
 1461              		.loc 1 167 17 view .LVU321
 1462 002a 094B     		ldr	r3, .L76+32
 1463 002c 1860     		str	r0, [r3]
 177:Core/Src/freertos.c **** 
 1464              		.loc 1 177 1 view .LVU322
 1465 002e 08BD     		pop	{r3, pc}
 1466              	.L77:
 1467              		.align	2
 1468              	.L76:
 1469 0030 00000000 		.word	.LANCHOR11
 1470 0034 00000000 		.word	Callback01
 1471 0038 00000000 		.word	.LANCHOR1
 1472 003c 00000000 		.word	.LANCHOR12
 1473 0040 00000000 		.word	MQTT_Task
 1474 0044 00000000 		.word	.LANCHOR13
 1475 0048 00000000 		.word	.LANCHOR14
 1476 004c 00000000 		.word	Sensor_Task
 1477 0050 00000000 		.word	.LANCHOR15
 1478              		.cfi_endproc
 1479              	.LFE72:
 1481              		.section	.text.HAL_GPIO_EXTI_Callback,"ax",%progbits
 1482              		.align	1
ARM GAS  C:\Users\Vento\AppData\Local\Temp\cce5YO1z.s 			page 40


 1483              		.global	HAL_GPIO_EXTI_Callback
 1484              		.syntax unified
 1485              		.thumb
 1486              		.thumb_func
 1487              		.fpu softvfp
 1489              	HAL_GPIO_EXTI_Callback:
 1490              	.LVL160:
 1491              	.LFB76:
 571:Core/Src/freertos.c **** 
 572:Core/Src/freertos.c **** /* Private application code --------------------------------------------------*/
 573:Core/Src/freertos.c **** /* USER CODE BEGIN Application */
 574:Core/Src/freertos.c **** void HAL_GPIO_EXTI_Callback(uint16_t GPIO_Pin)
 575:Core/Src/freertos.c **** {
 1492              		.loc 1 575 1 is_stmt 1 view -0
 1493              		.cfi_startproc
 1494              		@ args = 0, pretend = 0, frame = 0
 1495              		@ frame_needed = 0, uses_anonymous_args = 0
 1496              		@ link register save eliminated.
 576:Core/Src/freertos.c ****   if ((GPIO_Pin == GPIO_PIN_0) && (is_fall == 0))
 1497              		.loc 1 576 3 view .LVU324
 1498              		.loc 1 576 6 is_stmt 0 view .LVU325
 1499 0000 0128     		cmp	r0, #1
 1500 0002 00D0     		beq	.L80
 1501              	.L78:
 577:Core/Src/freertos.c ****   {
 578:Core/Src/freertos.c ****     is_fall = 1;
 579:Core/Src/freertos.c ****   }
 580:Core/Src/freertos.c **** }
 1502              		.loc 1 580 1 view .LVU326
 1503 0004 7047     		bx	lr
 1504              	.L80:
 576:Core/Src/freertos.c ****   if ((GPIO_Pin == GPIO_PIN_0) && (is_fall == 0))
 1505              		.loc 1 576 44 discriminator 1 view .LVU327
 1506 0006 044B     		ldr	r3, .L81
 1507 0008 1B78     		ldrb	r3, [r3]	@ zero_extendqisi2
 576:Core/Src/freertos.c ****   if ((GPIO_Pin == GPIO_PIN_0) && (is_fall == 0))
 1508              		.loc 1 576 32 discriminator 1 view .LVU328
 1509 000a 002B     		cmp	r3, #0
 1510 000c FAD1     		bne	.L78
 578:Core/Src/freertos.c ****   }
 1511              		.loc 1 578 5 is_stmt 1 view .LVU329
 578:Core/Src/freertos.c ****   }
 1512              		.loc 1 578 13 is_stmt 0 view .LVU330
 1513 000e 024B     		ldr	r3, .L81
 1514 0010 0122     		movs	r2, #1
 1515 0012 1A70     		strb	r2, [r3]
 1516              		.loc 1 580 1 view .LVU331
 1517 0014 F6E7     		b	.L78
 1518              	.L82:
 1519 0016 00BF     		.align	2
 1520              	.L81:
 1521 0018 00000000 		.word	.LANCHOR2
 1522              		.cfi_endproc
 1523              	.LFE76:
 1525              		.global	SecTimer_attributes
 1526              		.section	.rodata.str1.4,"aMS",%progbits,1
 1527              		.align	2
ARM GAS  C:\Users\Vento\AppData\Local\Temp\cce5YO1z.s 			page 41


 1528              	.LC26:
 1529 0000 53656354 		.ascii	"SecTimer\000"
 1529      696D6572 
 1529      00
 1530              		.global	SecTimerHandle
 1531              		.global	SENSORs_attributes
 1532 0009 000000   		.align	2
 1533              	.LC27:
 1534 000c 53454E53 		.ascii	"SENSORs\000"
 1534      4F527300 
 1535              		.global	SENSORsHandle
 1536              		.global	MQTT_attributes
 1537              		.align	2
 1538              	.LC28:
 1539 0014 4D515454 		.ascii	"MQTT\000"
 1539      00
 1540              		.global	MQTTHandle
 1541              		.global	Number
 1542              		.global	SMS
 1543              		.global	Lat
 1544              		.global	Lon
 1545              		.global	is_GPS_new
 1546              		.global	is_MPU_OK
 1547              		.global	is_busy
 1548              		.global	is_fall
 1549              		.global	is_SMS_done
 1550              		.global	gGravity
 1551              		.global	MPU6050
 1552              		.section	.bss.Lat,"aw",%nobits
 1553              		.align	2
 1554              		.set	.LANCHOR6,. + 0
 1557              	Lat:
 1558 0000 00000000 		.space	4
 1559              		.section	.bss.Lon,"aw",%nobits
 1560              		.align	2
 1561              		.set	.LANCHOR7,. + 0
 1564              	Lon:
 1565 0000 00000000 		.space	4
 1566              		.section	.bss.MPU6050,"aw",%nobits
 1567              		.align	3
 1568              		.set	.LANCHOR9,. + 0
 1571              	MPU6050:
 1572 0000 00000000 		.space	88
 1572      00000000 
 1572      00000000 
 1572      00000000 
 1572      00000000 
 1573              		.section	.bss.MQTTHandle,"aw",%nobits
 1574              		.align	2
 1575              		.set	.LANCHOR13,. + 0
 1578              	MQTTHandle:
 1579 0000 00000000 		.space	4
 1580              		.section	.bss.SENSORsHandle,"aw",%nobits
 1581              		.align	2
 1582              		.set	.LANCHOR15,. + 0
 1585              	SENSORsHandle:
 1586 0000 00000000 		.space	4
ARM GAS  C:\Users\Vento\AppData\Local\Temp\cce5YO1z.s 			page 42


 1587              		.section	.bss.SMS,"aw",%nobits
 1588              		.align	2
 1589              		.set	.LANCHOR3,. + 0
 1592              	SMS:
 1593 0000 00000000 		.space	200
 1593      00000000 
 1593      00000000 
 1593      00000000 
 1593      00000000 
 1594              		.section	.bss.SecTimerHandle,"aw",%nobits
 1595              		.align	2
 1596              		.set	.LANCHOR1,. + 0
 1599              	SecTimerHandle:
 1600 0000 00000000 		.space	4
 1601              		.section	.bss.gGravity,"aw",%nobits
 1602              		.align	2
 1603              		.set	.LANCHOR10,. + 0
 1606              	gGravity:
 1607 0000 00000000 		.space	4
 1608              		.section	.bss.is_GPS_new,"aw",%nobits
 1609              		.set	.LANCHOR5,. + 0
 1612              	is_GPS_new:
 1613 0000 00       		.space	1
 1614              		.section	.bss.is_MPU_OK,"aw",%nobits
 1615              		.set	.LANCHOR0,. + 0
 1618              	is_MPU_OK:
 1619 0000 00       		.space	1
 1620              		.section	.bss.is_SMS_done,"aw",%nobits
 1621              		.set	.LANCHOR8,. + 0
 1624              	is_SMS_done:
 1625 0000 00       		.space	1
 1626              		.section	.bss.is_busy,"aw",%nobits
 1629              	is_busy:
 1630 0000 00       		.space	1
 1631              		.section	.bss.is_fall,"aw",%nobits
 1632              		.set	.LANCHOR2,. + 0
 1635              	is_fall:
 1636 0000 00       		.space	1
 1637              		.section	.data.Number,"aw"
 1638              		.align	2
 1639              		.set	.LANCHOR4,. + 0
 1642              	Number:
 1643 0000 30393134 		.ascii	"0914989855\000"
 1643      39383938 
 1643      353500
 1644 000b 0000     		.space	2
 1645              		.section	.rodata.MQTT_attributes,"a"
 1646              		.align	2
 1647              		.set	.LANCHOR12,. + 0
 1650              	MQTT_attributes:
 1651 0000 14000000 		.word	.LC28
 1652 0004 00000000 		.space	16
 1652      00000000 
 1652      00000000 
 1652      00000000 
 1653 0014 78050000 		.word	1400
 1654 0018 18000000 		.word	24
ARM GAS  C:\Users\Vento\AppData\Local\Temp\cce5YO1z.s 			page 43


 1655 001c 00000000 		.space	8
 1655      00000000 
 1656              		.section	.rodata.SENSORs_attributes,"a"
 1657              		.align	2
 1658              		.set	.LANCHOR14,. + 0
 1661              	SENSORs_attributes:
 1662 0000 0C000000 		.word	.LC27
 1663 0004 00000000 		.space	16
 1663      00000000 
 1663      00000000 
 1663      00000000 
 1664 0014 58020000 		.word	600
 1665 0018 08000000 		.word	8
 1666 001c 00000000 		.space	8
 1666      00000000 
 1667              		.section	.rodata.SecTimer_attributes,"a"
 1668              		.align	2
 1669              		.set	.LANCHOR11,. + 0
 1672              	SecTimer_attributes:
 1673 0000 00000000 		.word	.LC26
 1674 0004 00000000 		.space	12
 1674      00000000 
 1674      00000000 
 1675              		.text
 1676              	.Letext0:
 1677              		.file 2 "d:\\tools\\gcc-arm-none-eabi-10.3-2021.07\\arm-none-eabi\\include\\machine\\_default_type
 1678              		.file 3 "d:\\tools\\gcc-arm-none-eabi-10.3-2021.07\\arm-none-eabi\\include\\sys\\_stdint.h"
 1679              		.file 4 "Drivers/CMSIS/Device/ST/STM32F1xx/Include/stm32f103xb.h"
 1680              		.file 5 "Drivers/STM32F1xx_HAL_Driver/Inc/stm32f1xx_hal_def.h"
 1681              		.file 6 "Drivers/STM32F1xx_HAL_Driver/Inc/stm32f1xx_hal_dma.h"
 1682              		.file 7 "Drivers/STM32F1xx_HAL_Driver/Inc/stm32f1xx_hal_i2c.h"
 1683              		.file 8 "Drivers/STM32F1xx_HAL_Driver/Inc/stm32f1xx_hal_iwdg.h"
 1684              		.file 9 "Drivers/STM32F1xx_HAL_Driver/Inc/stm32f1xx_hal_uart.h"
 1685              		.file 10 "Middlewares/Third_Party/FreeRTOS/Source/CMSIS_RTOS_V2/cmsis_os2.h"
 1686              		.file 11 "Core/Inc/MQTTSim800.h"
 1687              		.file 12 "Core/Inc/mpu6050.h"
 1688              		.file 13 "Core/Inc/i2c.h"
 1689              		.file 14 "Drivers/STM32F1xx_HAL_Driver/Inc/stm32f1xx_hal_gpio.h"
 1690              		.file 15 "d:\\tools\\gcc-arm-none-eabi-10.3-2021.07\\arm-none-eabi\\include\\math.h"
 1691              		.file 16 "Drivers/STM32F1xx_HAL_Driver/Inc/stm32f1xx_hal.h"
 1692              		.file 17 "<built-in>"
 1693              		.file 18 "d:\\tools\\gcc-arm-none-eabi-10.3-2021.07\\arm-none-eabi\\include\\stdio.h"
 1694              		.file 19 "d:\\tools\\gcc-arm-none-eabi-10.3-2021.07\\arm-none-eabi\\include\\string.h"
ARM GAS  C:\Users\Vento\AppData\Local\Temp\cce5YO1z.s 			page 44


DEFINED SYMBOLS
                            *ABS*:00000000 freertos.c
C:\Users\Vento\AppData\Local\Temp\cce5YO1z.s:16     .rodata.MQTT_Task.str1.4:00000000 $d
C:\Users\Vento\AppData\Local\Temp\cce5YO1z.s:100    .text.MQTT_Task:00000000 $t
C:\Users\Vento\AppData\Local\Temp\cce5YO1z.s:108    .text.MQTT_Task:00000000 MQTT_Task
C:\Users\Vento\AppData\Local\Temp\cce5YO1z.s:591    .text.MQTT_Task:000002cc $d
C:\Users\Vento\AppData\Local\Temp\cce5YO1z.s:633    .text.MQTT_Task:00000368 $t
C:\Users\Vento\AppData\Local\Temp\cce5YO1z.s:1140   .text.MQTT_Task:00000608 $d
C:\Users\Vento\AppData\Local\Temp\cce5YO1z.s:1176   .text.Sensor_Task:00000000 $t
C:\Users\Vento\AppData\Local\Temp\cce5YO1z.s:1183   .text.Sensor_Task:00000000 Sensor_Task
C:\Users\Vento\AppData\Local\Temp\cce5YO1z.s:1349   .text.Sensor_Task:000000d8 $d
C:\Users\Vento\AppData\Local\Temp\cce5YO1z.s:1361   .text.Callback01:00000000 $t
C:\Users\Vento\AppData\Local\Temp\cce5YO1z.s:1368   .text.Callback01:00000000 Callback01
C:\Users\Vento\AppData\Local\Temp\cce5YO1z.s:1408   .text.Callback01:00000020 $d
C:\Users\Vento\AppData\Local\Temp\cce5YO1z.s:1415   .text.MX_FREERTOS_Init:00000000 $t
C:\Users\Vento\AppData\Local\Temp\cce5YO1z.s:1422   .text.MX_FREERTOS_Init:00000000 MX_FREERTOS_Init
C:\Users\Vento\AppData\Local\Temp\cce5YO1z.s:1469   .text.MX_FREERTOS_Init:00000030 $d
C:\Users\Vento\AppData\Local\Temp\cce5YO1z.s:1482   .text.HAL_GPIO_EXTI_Callback:00000000 $t
C:\Users\Vento\AppData\Local\Temp\cce5YO1z.s:1489   .text.HAL_GPIO_EXTI_Callback:00000000 HAL_GPIO_EXTI_Callback
C:\Users\Vento\AppData\Local\Temp\cce5YO1z.s:1521   .text.HAL_GPIO_EXTI_Callback:00000018 $d
C:\Users\Vento\AppData\Local\Temp\cce5YO1z.s:1672   .rodata.SecTimer_attributes:00000000 SecTimer_attributes
C:\Users\Vento\AppData\Local\Temp\cce5YO1z.s:1527   .rodata.str1.4:00000000 $d
C:\Users\Vento\AppData\Local\Temp\cce5YO1z.s:1599   .bss.SecTimerHandle:00000000 SecTimerHandle
C:\Users\Vento\AppData\Local\Temp\cce5YO1z.s:1661   .rodata.SENSORs_attributes:00000000 SENSORs_attributes
C:\Users\Vento\AppData\Local\Temp\cce5YO1z.s:1585   .bss.SENSORsHandle:00000000 SENSORsHandle
C:\Users\Vento\AppData\Local\Temp\cce5YO1z.s:1650   .rodata.MQTT_attributes:00000000 MQTT_attributes
C:\Users\Vento\AppData\Local\Temp\cce5YO1z.s:1578   .bss.MQTTHandle:00000000 MQTTHandle
C:\Users\Vento\AppData\Local\Temp\cce5YO1z.s:1642   .data.Number:00000000 Number
C:\Users\Vento\AppData\Local\Temp\cce5YO1z.s:1592   .bss.SMS:00000000 SMS
C:\Users\Vento\AppData\Local\Temp\cce5YO1z.s:1557   .bss.Lat:00000000 Lat
C:\Users\Vento\AppData\Local\Temp\cce5YO1z.s:1564   .bss.Lon:00000000 Lon
C:\Users\Vento\AppData\Local\Temp\cce5YO1z.s:1612   .bss.is_GPS_new:00000000 is_GPS_new
C:\Users\Vento\AppData\Local\Temp\cce5YO1z.s:1618   .bss.is_MPU_OK:00000000 is_MPU_OK
C:\Users\Vento\AppData\Local\Temp\cce5YO1z.s:1629   .bss.is_busy:00000000 is_busy
C:\Users\Vento\AppData\Local\Temp\cce5YO1z.s:1635   .bss.is_fall:00000000 is_fall
C:\Users\Vento\AppData\Local\Temp\cce5YO1z.s:1624   .bss.is_SMS_done:00000000 is_SMS_done
C:\Users\Vento\AppData\Local\Temp\cce5YO1z.s:1606   .bss.gGravity:00000000 gGravity
C:\Users\Vento\AppData\Local\Temp\cce5YO1z.s:1571   .bss.MPU6050:00000000 MPU6050
C:\Users\Vento\AppData\Local\Temp\cce5YO1z.s:1553   .bss.Lat:00000000 $d
C:\Users\Vento\AppData\Local\Temp\cce5YO1z.s:1560   .bss.Lon:00000000 $d
C:\Users\Vento\AppData\Local\Temp\cce5YO1z.s:1567   .bss.MPU6050:00000000 $d
C:\Users\Vento\AppData\Local\Temp\cce5YO1z.s:1574   .bss.MQTTHandle:00000000 $d
C:\Users\Vento\AppData\Local\Temp\cce5YO1z.s:1581   .bss.SENSORsHandle:00000000 $d
C:\Users\Vento\AppData\Local\Temp\cce5YO1z.s:1588   .bss.SMS:00000000 $d
C:\Users\Vento\AppData\Local\Temp\cce5YO1z.s:1595   .bss.SecTimerHandle:00000000 $d
C:\Users\Vento\AppData\Local\Temp\cce5YO1z.s:1602   .bss.gGravity:00000000 $d
C:\Users\Vento\AppData\Local\Temp\cce5YO1z.s:1613   .bss.is_GPS_new:00000000 $d
C:\Users\Vento\AppData\Local\Temp\cce5YO1z.s:1619   .bss.is_MPU_OK:00000000 $d
C:\Users\Vento\AppData\Local\Temp\cce5YO1z.s:1625   .bss.is_SMS_done:00000000 $d
C:\Users\Vento\AppData\Local\Temp\cce5YO1z.s:1630   .bss.is_busy:00000000 $d
C:\Users\Vento\AppData\Local\Temp\cce5YO1z.s:1636   .bss.is_fall:00000000 $d
C:\Users\Vento\AppData\Local\Temp\cce5YO1z.s:1638   .data.Number:00000000 $d
C:\Users\Vento\AppData\Local\Temp\cce5YO1z.s:1646   .rodata.MQTT_attributes:00000000 $d
C:\Users\Vento\AppData\Local\Temp\cce5YO1z.s:1657   .rodata.SENSORs_attributes:00000000 $d
C:\Users\Vento\AppData\Local\Temp\cce5YO1z.s:1668   .rodata.SecTimer_attributes:00000000 $d

UNDEFINED SYMBOLS
ARM GAS  C:\Users\Vento\AppData\Local\Temp\cce5YO1z.s 			page 45


__aeabi_f2d
__aeabi_fcmpeq
osDelay
HAL_UART_Receive_IT
HAL_GPIO_WritePin
SIM800_SendCommand
MQTT_Init
osTimerStart
getBattery
MQTT_Pub
MQTT_PubUint8
HAL_GetTick
MQTT_Sub
memset
HAL_IWDG_Refresh
strlen
snprintf
strcat
HAL_UART_Transmit_IT
SIM800
rx_data
huart1
SIM800_Batt
hiwdg
myGPS
getGPS
osTimerStop
strstr
__aeabi_dmul
__aeabi_dadd
__aeabi_d2f
__aeabi_dcmplt
MPU6050_Init
MPU6050_Read_Accel
sqrt
hi2c1
HAL_GPIO_TogglePin
osTimerNew
osThreadNew
