ARM GAS  C:\Users\Vento\AppData\Local\Temp\ccfmBiuF.s 			page 1


   1              		.cpu cortex-m3
   2              		.eabi_attribute 20, 1
   3              		.eabi_attribute 21, 1
   4              		.eabi_attribute 23, 3
   5              		.eabi_attribute 24, 1
   6              		.eabi_attribute 25, 1
   7              		.eabi_attribute 26, 1
   8              		.eabi_attribute 30, 1
   9              		.eabi_attribute 34, 1
  10              		.eabi_attribute 18, 4
  11              		.file	"freertos.c"
  12              		.text
  13              	.Ltext0:
  14              		.cfi_sections	.debug_frame
  15              		.section	.rodata.MQTT_Task.str1.4,"aMS",%progbits,1
  16              		.align	2
  17              	.LC0:
  18 0000 6D332D77 		.ascii	"m3-world\000"
  18      6F726C64 
  18      00
  19 0009 000000   		.align	2
  20              	.LC1:
  21 000c 6D6D7300 		.ascii	"mms\000"
  22              		.align	2
  23              	.LC2:
  24 0010 686F7472 		.ascii	"hotrodotquy.vn\000"
  24      6F646F74 
  24      7175792E 
  24      766E00
  25 001f 00       		.align	2
  26              	.LC3:
  27 0020 00       		.ascii	"\000"
  28 0021 000000   		.align	2
  29              	.LC4:
  30 0024 686D00   		.ascii	"hm\000"
  31 0027 00       		.align	2
  32              	.LC5:
  33 0028 4F4B0D0A 		.ascii	"OK\015\012\000"
  33      00
  34 002d 000000   		.align	2
  35              	.LC6:
  36 0030 41540D0A 		.ascii	"AT\015\012\000"
  36      00
  37 0035 000000   		.align	2
  38              	.LC7:
  39 0038 4F4B0D00 		.ascii	"OK\015\000"
  40              		.align	2
  41              	.LC8:
  42 003c 41542B43 		.ascii	"AT+CGNSPWR=1\015\012\000"
  42      474E5350 
  42      57523D31 
  42      0D0A00
  43 004b 00       		.align	2
  44              	.LC9:
  45 004c 3000     		.ascii	"0\000"
  46 004e 0000     		.align	2
  47              	.LC10:
ARM GAS  C:\Users\Vento\AppData\Local\Temp\ccfmBiuF.s 			page 2


  48 0050 6D616E64 		.ascii	"mandevices/stroke-medical/human/fall\000"
  48      65766963 
  48      65732F73 
  48      74726F6B 
  48      652D6D65 
  49 0075 000000   		.align	2
  50              	.LC11:
  51 0078 42454E48 		.ascii	"BENH NHAN DA BI NGA! SOS!\012\000"
  51      204E4841 
  51      4E204441 
  51      20424920 
  51      4E474121 
  52 0093 00       		.align	2
  53              	.LC12:
  54 0094 41542B43 		.ascii	"AT+CMGS=\"%s\"\015\012\000"
  54      4D47533D 
  54      22257322 
  54      0D0A00
  55 00a3 00       		.align	2
  56              	.LC13:
  57 00a4 3E00     		.ascii	">\000"
  58 00a6 0000     		.align	2
  59              	.LC14:
  60 00a8 54686F69 		.ascii	"Thoi diem: %d:%d:%d %d/%d/%d\012\000"
  60      20646965 
  60      6D3A2025 
  60      643A2564 
  60      3A256420 
  61 00c6 0000     		.align	2
  62              	.LC15:
  63 00c8 546F6120 		.ascii	"Toa do: https://www.google.com/maps/search/?api=1&q"
  63      646F3A20 
  63      68747470 
  63      733A2F2F 
  63      7777772E 
  64 00fb 75657279 		.ascii	"uery=%s,%s\012\000"
  64      3D25732C 
  64      25730A00 
  65 0107 00       		.align	2
  66              	.LC16:
  67 0108 546F6120 		.ascii	"Toa do lan cuoi: https://www.google.com/maps/search"
  67      646F206C 
  67      616E2063 
  67      756F693A 
  67      20687474 
  68 013b 2F3F6170 		.ascii	"/?api=1&query=%f,%f\012\000"
  68      693D3126 
  68      71756572 
  68      793D2566 
  68      2C25660A 
  69              		.global	__aeabi_f2d
  70              		.align	2
  71              	.LC17:
  72 0150 3100     		.ascii	"1\000"
  73 0152 0000     		.align	2
  74              	.LC18:
  75 0154 25732C25 		.ascii	"%s,%s\000"
ARM GAS  C:\Users\Vento\AppData\Local\Temp\ccfmBiuF.s 			page 3


  75      7300
  76 015a 0000     		.align	2
  77              	.LC19:
  78 015c 25662C25 		.ascii	"%f,%f\000"
  78      6600
  79 0162 0000     		.align	2
  80              	.LC20:
  81 0164 6D616E64 		.ascii	"mandevices/stroke-medical/human/fall/loc\000"
  81      65766963 
  81      65732F73 
  81      74726F6B 
  81      652D6D65 
  82 018d 000000   		.align	2
  83              	.LC21:
  84 0190 41544425 		.ascii	"ATD%s;\015\012\000"
  84      733B0D0A 
  84      00
  85 0199 000000   		.align	2
  86              	.LC22:
  87 019c 4154480D 		.ascii	"ATH\015\012\000"
  87      0A00
  88 01a2 0000     		.align	2
  89              	.LC23:
  90 01a4 6D616E64 		.ascii	"mandevices/stroke-medical/human/SIMBattP\000"
  90      65766963 
  90      65732F73 
  90      74726F6B 
  90      652D6D65 
  91 01cd 000000   		.align	2
  92              	.LC24:
  93 01d0 6D616E64 		.ascii	"mandevices/stroke-medical/human/SIMBattV\000"
  93      65766963 
  93      65732F73 
  93      74726F6B 
  93      652D6D65 
  94 01f9 000000   		.align	2
  95              	.LC25:
  96 01fc 50696E20 		.ascii	"Pin cua thiet bi dang o muc yeu, hay mang thiet bi "
  96      63756120 
  96      74686965 
  96      74206269 
  96      2064616E 
  97 022f 76652074 		.ascii	"ve tram sac\000"
  97      72616D20 
  97      73616300 
  98 023b 00       		.align	2
  99              	.LC26:
 100 023c 41542B43 		.ascii	"AT+CIPSHUT\015\012\000"
 100      49505348 
 100      55540D0A 
 100      00
 101 0249 000000   		.align	2
 102              	.LC27:
 103 024c 41542B43 		.ascii	"AT+CIICR\015\012\000"
 103      49494352 
 103      0D0A00
 104 0257 00       		.align	2
ARM GAS  C:\Users\Vento\AppData\Local\Temp\ccfmBiuF.s 			page 4


 105              	.LC28:
 106 0258 41542B43 		.ascii	"AT+CIFSR\015\012\000"
 106      49465352 
 106      0D0A00
 107              		.global	__aeabi_fcmpeq
 108              		.section	.text.MQTT_Task,"ax",%progbits
 109              		.align	1
 110              		.global	MQTT_Task
 111              		.arch armv7-m
 112              		.syntax unified
 113              		.thumb
 114              		.thumb_func
 115              		.fpu softvfp
 117              	MQTT_Task:
 118              	.LVL0:
 119              	.LFB73:
 120              		.file 1 "Core/Src/freertos.c"
   1:Core/Src/freertos.c **** /* USER CODE BEGIN Header */
   2:Core/Src/freertos.c **** /**
   3:Core/Src/freertos.c ****   ******************************************************************************
   4:Core/Src/freertos.c ****   * File Name          : freertos.c
   5:Core/Src/freertos.c ****   * Description        : Code for freertos applications
   6:Core/Src/freertos.c ****   ******************************************************************************
   7:Core/Src/freertos.c ****   * @attention
   8:Core/Src/freertos.c ****   *
   9:Core/Src/freertos.c ****   * Copyright (c) 2022 STMicroelectronics.
  10:Core/Src/freertos.c ****   * All rights reserved.
  11:Core/Src/freertos.c ****   *
  12:Core/Src/freertos.c ****   * This software is licensed under terms that can be found in the LICENSE file
  13:Core/Src/freertos.c ****   * in the root directory of this software component.
  14:Core/Src/freertos.c ****   * If no LICENSE file comes with this software, it is provided AS-IS.
  15:Core/Src/freertos.c ****   *
  16:Core/Src/freertos.c ****   ******************************************************************************
  17:Core/Src/freertos.c ****   */
  18:Core/Src/freertos.c **** /* USER CODE END Header */
  19:Core/Src/freertos.c **** 
  20:Core/Src/freertos.c **** /* Includes ------------------------------------------------------------------*/
  21:Core/Src/freertos.c **** #include "FreeRTOS.h"
  22:Core/Src/freertos.c **** #include "task.h"
  23:Core/Src/freertos.c **** #include "main.h"
  24:Core/Src/freertos.c **** #include "cmsis_os.h"
  25:Core/Src/freertos.c **** 
  26:Core/Src/freertos.c **** /* Private includes ----------------------------------------------------------*/
  27:Core/Src/freertos.c **** /* USER CODE BEGIN Includes */
  28:Core/Src/freertos.c **** 
  29:Core/Src/freertos.c **** #include "MQTTSim800.h"
  30:Core/Src/freertos.c **** #include "mpu6050.h"
  31:Core/Src/freertos.c **** #include "math.h"
  32:Core/Src/freertos.c **** #include "string.h"
  33:Core/Src/freertos.c **** #include "stdio.h"
  34:Core/Src/freertos.c **** 
  35:Core/Src/freertos.c **** /* USER CODE END Includes */
  36:Core/Src/freertos.c **** 
  37:Core/Src/freertos.c **** /* Private typedef -----------------------------------------------------------*/
  38:Core/Src/freertos.c **** /* USER CODE BEGIN PTD */
  39:Core/Src/freertos.c **** 
  40:Core/Src/freertos.c **** typedef struct
ARM GAS  C:\Users\Vento\AppData\Local\Temp\ccfmBiuF.s 			page 5


  41:Core/Src/freertos.c **** {
  42:Core/Src/freertos.c ****   uint8_t SIM;
  43:Core/Src/freertos.c ****   uint8_t GPRS;
  44:Core/Src/freertos.c ****   uint8_t MQTT;
  45:Core/Src/freertos.c **** } SIM800_St;
  46:Core/Src/freertos.c **** 
  47:Core/Src/freertos.c **** /* USER CODE END PTD */
  48:Core/Src/freertos.c **** 
  49:Core/Src/freertos.c **** /* Private define ------------------------------------------------------------*/
  50:Core/Src/freertos.c **** /* USER CODE BEGIN PD */
  51:Core/Src/freertos.c **** 
  52:Core/Src/freertos.c **** #define SIM_R_OK    0
  53:Core/Src/freertos.c **** #define SIM_R_nOK   1
  54:Core/Src/freertos.c **** 
  55:Core/Src/freertos.c **** #define MPU_OK  0
  56:Core/Src/freertos.c **** #define MPU_nOK 1
  57:Core/Src/freertos.c **** 
  58:Core/Src/freertos.c **** /* USER CODE END PD */
  59:Core/Src/freertos.c **** 
  60:Core/Src/freertos.c **** /* Private macro -------------------------------------------------------------*/
  61:Core/Src/freertos.c **** /* USER CODE BEGIN PM */
  62:Core/Src/freertos.c **** 
  63:Core/Src/freertos.c **** /* USER CODE END PM */
  64:Core/Src/freertos.c **** 
  65:Core/Src/freertos.c **** /* Private variables ---------------------------------------------------------*/
  66:Core/Src/freertos.c **** /* USER CODE BEGIN Variables */
  67:Core/Src/freertos.c **** 
  68:Core/Src/freertos.c **** extern UART_HandleTypeDef huart1;
  69:Core/Src/freertos.c **** extern I2C_HandleTypeDef hi2c1;
  70:Core/Src/freertos.c **** extern IWDG_HandleTypeDef hiwdg;
  71:Core/Src/freertos.c **** extern SIM800_t SIM800;
  72:Core/Src/freertos.c **** extern uint8_t rx_data;
  73:Core/Src/freertos.c **** extern SIM800_St SIM800_Status;
  74:Core/Src/freertos.c **** extern GPS_Sta_t myGPS;
  75:Core/Src/freertos.c **** extern SIM800_Batt_t SIM800_Batt;
  76:Core/Src/freertos.c **** 
  77:Core/Src/freertos.c **** MPU6050_t MPU6050;
  78:Core/Src/freertos.c **** 
  79:Core/Src/freertos.c **** float gGravity = 0.0;
  80:Core/Src/freertos.c **** 
  81:Core/Src/freertos.c **** volatile uint8_t  is_SMS_done = 0;
  82:Core/Src/freertos.c **** uint8_t is_fall = 0;
  83:Core/Src/freertos.c **** uint8_t is_busy = 0;
  84:Core/Src/freertos.c **** uint8_t is_MPU_OK = 0;
  85:Core/Src/freertos.c **** uint8_t is_GPS_new = 0;
  86:Core/Src/freertos.c **** 
  87:Core/Src/freertos.c **** float Lon = 0.0;
  88:Core/Src/freertos.c **** float Lat = 0.0;
  89:Core/Src/freertos.c **** 
  90:Core/Src/freertos.c **** // char call[25] = "ATD+84816056426;\r\n";
  91:Core/Src/freertos.c **** char SMS[200] = {0};
  92:Core/Src/freertos.c **** // char SMSStrg[110] = "BENH NHAN DA BI NGA!\nToa do benh nhan: 
  93:Core/Src/freertos.c **** //                     https://www.google.com/maps/search/?api=1&query=";
  94:Core/Src/freertos.c **** // char InfoBV1[110] = "Benh vien Da khoa Hoan My Cuu Long, SDT: 02923917901\nBenh vien Da khoa S.I
  95:Core/Src/freertos.c **** // char InfoBV2[110] = "Benh vien Da khoa Thanh pho Can Tho, SDT: 02923821235\nBenh vien Da khoa Tr
  96:Core/Src/freertos.c **** char Number[13] = "0914989855";
  97:Core/Src/freertos.c **** 
ARM GAS  C:\Users\Vento\AppData\Local\Temp\ccfmBiuF.s 			page 6


  98:Core/Src/freertos.c **** /* USER CODE END Variables */
  99:Core/Src/freertos.c **** /* Definitions for MQTT */
 100:Core/Src/freertos.c **** osThreadId_t MQTTHandle;
 101:Core/Src/freertos.c **** const osThreadAttr_t MQTT_attributes = {
 102:Core/Src/freertos.c ****   .name = "MQTT",
 103:Core/Src/freertos.c ****   .stack_size = 350 * 4,
 104:Core/Src/freertos.c ****   .priority = (osPriority_t) osPriorityNormal,
 105:Core/Src/freertos.c **** };
 106:Core/Src/freertos.c **** /* Definitions for SENSORs */
 107:Core/Src/freertos.c **** osThreadId_t SENSORsHandle;
 108:Core/Src/freertos.c **** const osThreadAttr_t SENSORs_attributes = {
 109:Core/Src/freertos.c ****   .name = "SENSORs",
 110:Core/Src/freertos.c ****   .stack_size = 150 * 4,
 111:Core/Src/freertos.c ****   .priority = (osPriority_t) osPriorityLow,
 112:Core/Src/freertos.c **** };
 113:Core/Src/freertos.c **** /* Definitions for SecTimer */
 114:Core/Src/freertos.c **** osTimerId_t SecTimerHandle;
 115:Core/Src/freertos.c **** const osTimerAttr_t SecTimer_attributes = {
 116:Core/Src/freertos.c ****   .name = "SecTimer"
 117:Core/Src/freertos.c **** };
 118:Core/Src/freertos.c **** 
 119:Core/Src/freertos.c **** /* Private function prototypes -----------------------------------------------*/
 120:Core/Src/freertos.c **** /* USER CODE BEGIN FunctionPrototypes */
 121:Core/Src/freertos.c **** 
 122:Core/Src/freertos.c **** 
 123:Core/Src/freertos.c **** 
 124:Core/Src/freertos.c **** /* USER CODE END FunctionPrototypes */
 125:Core/Src/freertos.c **** 
 126:Core/Src/freertos.c **** void MQTT_Task(void *argument);
 127:Core/Src/freertos.c **** void Sensor_Task(void *argument);
 128:Core/Src/freertos.c **** void Callback01(void *argument);
 129:Core/Src/freertos.c **** 
 130:Core/Src/freertos.c **** void MX_FREERTOS_Init(void); /* (MISRA C 2004 rule 8.1) */
 131:Core/Src/freertos.c **** 
 132:Core/Src/freertos.c **** /**
 133:Core/Src/freertos.c ****   * @brief  FreeRTOS initialization
 134:Core/Src/freertos.c ****   * @param  None
 135:Core/Src/freertos.c ****   * @retval None
 136:Core/Src/freertos.c ****   */
 137:Core/Src/freertos.c **** void MX_FREERTOS_Init(void) {
 138:Core/Src/freertos.c ****   /* USER CODE BEGIN Init */
 139:Core/Src/freertos.c **** 
 140:Core/Src/freertos.c ****   /* USER CODE END Init */
 141:Core/Src/freertos.c **** 
 142:Core/Src/freertos.c ****   /* USER CODE BEGIN RTOS_MUTEX */
 143:Core/Src/freertos.c ****   /* add mutexes, ... */
 144:Core/Src/freertos.c ****   /* USER CODE END RTOS_MUTEX */
 145:Core/Src/freertos.c **** 
 146:Core/Src/freertos.c ****   /* USER CODE BEGIN RTOS_SEMAPHORES */
 147:Core/Src/freertos.c ****   /* add semaphores, ... */
 148:Core/Src/freertos.c ****   /* USER CODE END RTOS_SEMAPHORES */
 149:Core/Src/freertos.c **** 
 150:Core/Src/freertos.c ****   /* Create the timer(s) */
 151:Core/Src/freertos.c ****   /* creation of SecTimer */
 152:Core/Src/freertos.c ****   SecTimerHandle = osTimerNew(Callback01, osTimerPeriodic, NULL, &SecTimer_attributes);
 153:Core/Src/freertos.c **** 
 154:Core/Src/freertos.c ****   /* USER CODE BEGIN RTOS_TIMERS */
ARM GAS  C:\Users\Vento\AppData\Local\Temp\ccfmBiuF.s 			page 7


 155:Core/Src/freertos.c ****   /* start timers, add new ones, ... */
 156:Core/Src/freertos.c ****   /* USER CODE END RTOS_TIMERS */
 157:Core/Src/freertos.c **** 
 158:Core/Src/freertos.c ****   /* USER CODE BEGIN RTOS_QUEUES */
 159:Core/Src/freertos.c ****   /* add queues, ... */
 160:Core/Src/freertos.c ****   /* USER CODE END RTOS_QUEUES */
 161:Core/Src/freertos.c **** 
 162:Core/Src/freertos.c ****   /* Create the thread(s) */
 163:Core/Src/freertos.c ****   /* creation of MQTT */
 164:Core/Src/freertos.c ****   MQTTHandle = osThreadNew(MQTT_Task, NULL, &MQTT_attributes);
 165:Core/Src/freertos.c **** 
 166:Core/Src/freertos.c ****   /* creation of SENSORs */
 167:Core/Src/freertos.c ****   SENSORsHandle = osThreadNew(Sensor_Task, NULL, &SENSORs_attributes);
 168:Core/Src/freertos.c **** 
 169:Core/Src/freertos.c ****   /* USER CODE BEGIN RTOS_THREADS */
 170:Core/Src/freertos.c ****   /* add threads, ... */
 171:Core/Src/freertos.c ****   /* USER CODE END RTOS_THREADS */
 172:Core/Src/freertos.c **** 
 173:Core/Src/freertos.c ****   /* USER CODE BEGIN RTOS_EVENTS */
 174:Core/Src/freertos.c ****   /* add events, ... */
 175:Core/Src/freertos.c ****   /* USER CODE END RTOS_EVENTS */
 176:Core/Src/freertos.c **** 
 177:Core/Src/freertos.c **** }
 178:Core/Src/freertos.c **** 
 179:Core/Src/freertos.c **** /* USER CODE BEGIN Header_MQTT_Task */
 180:Core/Src/freertos.c **** /**
 181:Core/Src/freertos.c ****   * @brief  Function implementing the MQTT thread.
 182:Core/Src/freertos.c ****   * @param  argument: Not used
 183:Core/Src/freertos.c ****   * @retval None
 184:Core/Src/freertos.c ****   */
 185:Core/Src/freertos.c **** /* USER CODE END Header_MQTT_Task */
 186:Core/Src/freertos.c **** void MQTT_Task(void *argument)
 187:Core/Src/freertos.c **** {
 121              		.loc 1 187 1 view -0
 122              		.cfi_startproc
 123              		@ args = 0, pretend = 0, frame = 104
 124              		@ frame_needed = 0, uses_anonymous_args = 0
 125              		.loc 1 187 1 is_stmt 0 view .LVU1
 126 0000 2DE9F043 		push	{r4, r5, r6, r7, r8, r9, lr}
 127              	.LCFI0:
 128              		.cfi_def_cfa_offset 28
 129              		.cfi_offset 4, -28
 130              		.cfi_offset 5, -24
 131              		.cfi_offset 6, -20
 132              		.cfi_offset 7, -16
 133              		.cfi_offset 8, -12
 134              		.cfi_offset 9, -8
 135              		.cfi_offset 14, -4
 136 0004 A1B0     		sub	sp, sp, #132
 137              	.LCFI1:
 138              		.cfi_def_cfa_offset 160
 188:Core/Src/freertos.c ****   /* USER CODE BEGIN MQTT_Task */
 189:Core/Src/freertos.c **** 
 190:Core/Src/freertos.c ****   //  Khoi tao cac tham so cho ket noi qua giao thuc MQTT
 191:Core/Src/freertos.c ****   SIM800.sim.apn = "m3-world";
 139              		.loc 1 191 3 is_stmt 1 view .LVU2
 140              		.loc 1 191 18 is_stmt 0 view .LVU3
ARM GAS  C:\Users\Vento\AppData\Local\Temp\ccfmBiuF.s 			page 8


 141 0006 AD4B     		ldr	r3, .L43
 142 0008 AD4A     		ldr	r2, .L43+4
 143 000a 1A60     		str	r2, [r3]
 192:Core/Src/freertos.c ****   SIM800.sim.apn_user = "mms";
 144              		.loc 1 192 3 is_stmt 1 view .LVU4
 145              		.loc 1 192 23 is_stmt 0 view .LVU5
 146 000c AD4A     		ldr	r2, .L43+8
 147 000e 5A60     		str	r2, [r3, #4]
 193:Core/Src/freertos.c ****   SIM800.sim.apn_pass = "mms";
 148              		.loc 1 193 3 is_stmt 1 view .LVU6
 149              		.loc 1 193 23 is_stmt 0 view .LVU7
 150 0010 9A60     		str	r2, [r3, #8]
 194:Core/Src/freertos.c ****   SIM800.mqttServer.host = "hotrodotquy.vn";
 151              		.loc 1 194 3 is_stmt 1 view .LVU8
 152              		.loc 1 194 26 is_stmt 0 view .LVU9
 153 0012 AD4A     		ldr	r2, .L43+12
 154 0014 DA60     		str	r2, [r3, #12]
 195:Core/Src/freertos.c ****   SIM800.mqttServer.port = 1883;
 155              		.loc 1 195 3 is_stmt 1 view .LVU10
 156              		.loc 1 195 26 is_stmt 0 view .LVU11
 157 0016 40F25B72 		movw	r2, #1883
 158 001a 1A82     		strh	r2, [r3, #16]	@ movhi
 196:Core/Src/freertos.c ****   SIM800.mqttClient.username = "";
 159              		.loc 1 196 3 is_stmt 1 view .LVU12
 160              		.loc 1 196 30 is_stmt 0 view .LVU13
 161 001c AB4A     		ldr	r2, .L43+16
 162 001e 5A61     		str	r2, [r3, #20]
 197:Core/Src/freertos.c ****   SIM800.mqttClient.clientID = "hm";
 163              		.loc 1 197 3 is_stmt 1 view .LVU14
 164              		.loc 1 197 30 is_stmt 0 view .LVU15
 165 0020 AB49     		ldr	r1, .L43+20
 166 0022 D961     		str	r1, [r3, #28]
 198:Core/Src/freertos.c ****   SIM800.mqttClient.pass = "";
 167              		.loc 1 198 3 is_stmt 1 view .LVU16
 168              		.loc 1 198 26 is_stmt 0 view .LVU17
 169 0024 9A61     		str	r2, [r3, #24]
 199:Core/Src/freertos.c ****   SIM800.mqttClient.keepAliveInterval = 120;
 170              		.loc 1 199 3 is_stmt 1 view .LVU18
 171              		.loc 1 199 39 is_stmt 0 view .LVU19
 172 0026 7822     		movs	r2, #120
 173 0028 1A84     		strh	r2, [r3, #32]	@ movhi
 200:Core/Src/freertos.c **** 
 201:Core/Src/freertos.c ****   // Chuan bi nghe phan hoi tu module SIM
 202:Core/Src/freertos.c ****   osDelay(100);
 174              		.loc 1 202 3 is_stmt 1 view .LVU20
 175 002a 6420     		movs	r0, #100
 176              	.LVL1:
 177              		.loc 1 202 3 is_stmt 0 view .LVU21
 178 002c FFF7FEFF 		bl	osDelay
 179              	.LVL2:
 203:Core/Src/freertos.c **** 
 204:Core/Src/freertos.c ****   HAL_UART_Receive_IT(UART_SIM800, &rx_data, 1);
 180              		.loc 1 204 3 is_stmt 1 view .LVU22
 181 0030 0122     		movs	r2, #1
 182 0032 A849     		ldr	r1, .L43+24
 183 0034 A848     		ldr	r0, .L43+28
 184 0036 FFF7FEFF 		bl	HAL_UART_Receive_IT
ARM GAS  C:\Users\Vento\AppData\Local\Temp\ccfmBiuF.s 			page 9


 185              	.LVL3:
 205:Core/Src/freertos.c **** 
 206:Core/Src/freertos.c **** 
 207:Core/Src/freertos.c ****   //Kiem tra module SIM hoat dong chua? Neu chua thi bat module SIM
 208:Core/Src/freertos.c ****   while (SIM800_SendCommand("AT\r\n", "OK\r\n", CMD_DELAY) == SIM_R_nOK)
 186              		.loc 1 208 3 view .LVU23
 187              		.loc 1 208 9 is_stmt 0 view .LVU24
 188 003a 14E0     		b	.L2
 189              	.L3:
 209:Core/Src/freertos.c ****   {
 210:Core/Src/freertos.c ****     HAL_GPIO_WritePin(SIM_PWRKEY_GPIO_Port, SIM_PWRKEY_Pin, 1);
 190              		.loc 1 210 5 is_stmt 1 view .LVU25
 191 003c A74C     		ldr	r4, .L43+32
 192 003e 0122     		movs	r2, #1
 193 0040 4FF48071 		mov	r1, #256
 194 0044 2046     		mov	r0, r4
 195 0046 FFF7FEFF 		bl	HAL_GPIO_WritePin
 196              	.LVL4:
 211:Core/Src/freertos.c ****     osDelay(2000);
 197              		.loc 1 211 5 view .LVU26
 198 004a 4FF4FA60 		mov	r0, #2000
 199 004e FFF7FEFF 		bl	osDelay
 200              	.LVL5:
 212:Core/Src/freertos.c ****     HAL_GPIO_WritePin(SIM_PWRKEY_GPIO_Port, SIM_PWRKEY_Pin, 0);
 201              		.loc 1 212 5 view .LVU27
 202 0052 0022     		movs	r2, #0
 203 0054 4FF48071 		mov	r1, #256
 204 0058 2046     		mov	r0, r4
 205 005a FFF7FEFF 		bl	HAL_GPIO_WritePin
 206              	.LVL6:
 213:Core/Src/freertos.c ****     osDelay(2000);
 207              		.loc 1 213 5 view .LVU28
 208 005e 4FF4FA60 		mov	r0, #2000
 209 0062 FFF7FEFF 		bl	osDelay
 210              	.LVL7:
 211              	.L2:
 208:Core/Src/freertos.c ****   {
 212              		.loc 1 208 9 view .LVU29
 208:Core/Src/freertos.c ****   {
 213              		.loc 1 208 10 is_stmt 0 view .LVU30
 214 0066 4FF4FA62 		mov	r2, #2000
 215 006a 9D49     		ldr	r1, .L43+36
 216 006c 9D48     		ldr	r0, .L43+40
 217 006e FFF7FEFF 		bl	SIM800_SendCommand
 218              	.LVL8:
 208:Core/Src/freertos.c ****   {
 219              		.loc 1 208 9 view .LVU31
 220 0072 0128     		cmp	r0, #1
 221 0074 E2D0     		beq	.L3
 214:Core/Src/freertos.c ****   }
 215:Core/Src/freertos.c ****   
 216:Core/Src/freertos.c ****   osDelay(2000);
 222              		.loc 1 216 3 is_stmt 1 view .LVU32
 223 0076 4FF4FA60 		mov	r0, #2000
 224 007a FFF7FEFF 		bl	osDelay
 225              	.LVL9:
 217:Core/Src/freertos.c ****   // Reset CLK timeout
ARM GAS  C:\Users\Vento\AppData\Local\Temp\ccfmBiuF.s 			page 10


 218:Core/Src/freertos.c ****   if (is_MPU_OK == 1)     HAL_IWDG_Refresh(&hiwdg);
 226              		.loc 1 218 3 view .LVU33
 227              		.loc 1 218 17 is_stmt 0 view .LVU34
 228 007e 9A4B     		ldr	r3, .L43+44
 229 0080 1B78     		ldrb	r3, [r3]	@ zero_extendqisi2
 230              		.loc 1 218 6 view .LVU35
 231 0082 012B     		cmp	r3, #1
 232 0084 2CD0     		beq	.L33
 233              	.L4:
 219:Core/Src/freertos.c **** 
 220:Core/Src/freertos.c ****   SIM800_SendCommand("AT+CGNSPWR=1\r\n", "OK\r", 1000);
 234              		.loc 1 220 3 is_stmt 1 view .LVU36
 235 0086 4FF47A72 		mov	r2, #1000
 236 008a 9849     		ldr	r1, .L43+48
 237 008c 9848     		ldr	r0, .L43+52
 238 008e FFF7FEFF 		bl	SIM800_SendCommand
 239              	.LVL10:
 221:Core/Src/freertos.c **** 
 222:Core/Src/freertos.c ****   // Bat dau ket noi MQTT
 223:Core/Src/freertos.c ****   MQTT_Init();
 240              		.loc 1 223 3 view .LVU37
 241 0092 FFF7FEFF 		bl	MQTT_Init
 242              	.LVL11:
 224:Core/Src/freertos.c **** 
 225:Core/Src/freertos.c ****   // SIM800_SendCommand("AT\r\n", "OK\r\n", CMD_DELAY);
 226:Core/Src/freertos.c ****   // SIM800_SendCommand("ATE0\r\n", "OK\r\n", CMD_DELAY);
 227:Core/Src/freertos.c ****   // if (SIM800_SendCommand("AT\r\n", "OK\r\n", CMD_DELAY) == 0){SIM800_Status.SIM = 1;}
 228:Core/Src/freertos.c ****   // else
 229:Core/Src/freertos.c ****   // {
 230:Core/Src/freertos.c ****   //     SIM800_Status.SIM = 0;
 231:Core/Src/freertos.c ****   //     SIM800_Status.GPRS = 0;
 232:Core/Src/freertos.c ****   //     SIM800_Status.MQTT = 0;
 233:Core/Src/freertos.c ****   // }
 234:Core/Src/freertos.c ****   // SIM800_SendCommand("AT+CMGF=1\r\n", "OK\r\n", 1000);
 235:Core/Src/freertos.c ****   // SIM800_SendCommand("AT+CIPSHUT\r\n", "OK\r\n", CMD_DELAY);
 236:Core/Src/freertos.c ****   // SIM800_SendCommand("AT+CGATT=1\r\n", "OK\r\n", CMD_DELAY);
 237:Core/Src/freertos.c **** 
 238:Core/Src/freertos.c ****   // Reset CLK timeout
 239:Core/Src/freertos.c ****   if (is_MPU_OK == 1)     HAL_IWDG_Refresh(&hiwdg);
 243              		.loc 1 239 3 view .LVU38
 244              		.loc 1 239 17 is_stmt 0 view .LVU39
 245 0096 944B     		ldr	r3, .L43+44
 246 0098 1B78     		ldrb	r3, [r3]	@ zero_extendqisi2
 247              		.loc 1 239 6 view .LVU40
 248 009a 012B     		cmp	r3, #1
 249 009c 24D0     		beq	.L34
 250              	.L5:
 240:Core/Src/freertos.c **** 
 241:Core/Src/freertos.c ****   // SIM800_SendCommand("AT+SAPBR=3,1,\"CONTYPE\",\"GPRS\"\r\n", "OK\r\n", CMD_DELAY);
 242:Core/Src/freertos.c ****   // SIM800_SendCommand("AT+SAPBR=3,1,\"APN\",\"CMNET\"\r\n", "OK\r\n", CMD_DELAY);
 243:Core/Src/freertos.c ****   // SIM800_SendCommand("AT+SAPBR=1,1\r\n", "OK\r\n", CMD_DELAY);
 244:Core/Src/freertos.c ****   // SIM800_SendCommand("AT+SAPBR=2,1\r\n", "OK\r\n", CMD_DELAY);
 245:Core/Src/freertos.c ****   // SIM800_SendCommand("AT+CLBS=1,1\r\n", "OK\r\n", 10000);
 246:Core/Src/freertos.c **** 
 247:Core/Src/freertos.c **** 
 248:Core/Src/freertos.c ****   // SIM800_SendCommand("ATE0\r\n", "OK\r\n", 1000);
 249:Core/Src/freertos.c ****   // SIM800_SendCommand("AT+CFUN=1\r\n", "OK\r\n", 1000);
ARM GAS  C:\Users\Vento\AppData\Local\Temp\ccfmBiuF.s 			page 11


 250:Core/Src/freertos.c **** 
 251:Core/Src/freertos.c ****   // SIM800_SendCommand("AT+CUSD=1,\"*101#\"\r\n", "OK\r\n", 5000);
 252:Core/Src/freertos.c **** 
 253:Core/Src/freertos.c ****   // SIM800_SendCommand("AT+CSCS?\r\n", "OK\r\n", 1000);
 254:Core/Src/freertos.c ****   // SIM800_SendCommand("AT+CSCS=\"GSM\"\r\n", "OK\r\n", 1000);
 255:Core/Src/freertos.c ****   // SIM800_SendCommand("AT+CSDH?\r\n", "OK\r\n", 1000);
 256:Core/Src/freertos.c ****   // SIM800_SendCommand("AT+CSMP=17,167,0,0\r\n", "OK\r\n", 1000);
 257:Core/Src/freertos.c **** 
 258:Core/Src/freertos.c ****   // Reset CLK timeout
 259:Core/Src/freertos.c **** 
 260:Core/Src/freertos.c ****   // Khoi tao timer 1s Reset CLK tu dong
 261:Core/Src/freertos.c ****   osTimerStart(SecTimerHandle, 2000);
 251              		.loc 1 261 3 is_stmt 1 view .LVU41
 252 009e 4FF4FA61 		mov	r1, #2000
 253 00a2 944B     		ldr	r3, .L43+56
 254 00a4 1868     		ldr	r0, [r3]
 255 00a6 FFF7FEFF 		bl	osTimerStart
 256              	.LVL12:
 262:Core/Src/freertos.c ****   
 263:Core/Src/freertos.c ****   // Ban tin ket noi trang thai dau tien
 264:Core/Src/freertos.c ****   osDelay(200);
 257              		.loc 1 264 3 view .LVU42
 258 00aa C820     		movs	r0, #200
 259 00ac FFF7FEFF 		bl	osDelay
 260              	.LVL13:
 265:Core/Src/freertos.c ****   MQTT_Pub("mandevices/stroke-medical/human/fall", "0");
 261              		.loc 1 265 3 view .LVU43
 262 00b0 9149     		ldr	r1, .L43+60
 263 00b2 9248     		ldr	r0, .L43+64
 264 00b4 FFF7FEFF 		bl	MQTT_Pub
 265              	.LVL14:
 266:Core/Src/freertos.c ****   osDelay(2000);
 266              		.loc 1 266 3 view .LVU44
 267 00b8 4FF4FA60 		mov	r0, #2000
 268 00bc FFF7FEFF 		bl	osDelay
 269              	.LVL15:
 267:Core/Src/freertos.c ****   uint32_t time = HAL_GetTick();
 270              		.loc 1 267 3 view .LVU45
 271              		.loc 1 267 19 is_stmt 0 view .LVU46
 272 00c0 FFF7FEFF 		bl	HAL_GetTick
 273              	.LVL16:
 274 00c4 0446     		mov	r4, r0
 275              	.LVL17:
 268:Core/Src/freertos.c ****   uint32_t timeBatt = HAL_GetTick();
 276              		.loc 1 268 3 is_stmt 1 view .LVU47
 277              		.loc 1 268 23 is_stmt 0 view .LVU48
 278 00c6 FFF7FEFF 		bl	HAL_GetTick
 279              	.LVL18:
 280              		.loc 1 268 23 view .LVU49
 281 00ca 0646     		mov	r6, r0
 282              	.LVL19:
 269:Core/Src/freertos.c ****   uint32_t GPStime = HAL_GetTick();
 283              		.loc 1 269 3 is_stmt 1 view .LVU50
 284              		.loc 1 269 22 is_stmt 0 view .LVU51
 285 00cc FFF7FEFF 		bl	HAL_GetTick
 286              	.LVL20:
 287              		.loc 1 269 22 view .LVU52
ARM GAS  C:\Users\Vento\AppData\Local\Temp\ccfmBiuF.s 			page 12


 288 00d0 0546     		mov	r5, r0
 289              	.LVL21:
 270:Core/Src/freertos.c **** 
 271:Core/Src/freertos.c ****   char str[100] = {0};
 290              		.loc 1 271 3 is_stmt 1 view .LVU53
 291              		.loc 1 271 8 is_stmt 0 view .LVU54
 292 00d2 0021     		movs	r1, #0
 293 00d4 0791     		str	r1, [sp, #28]
 294 00d6 6022     		movs	r2, #96
 295 00d8 08A8     		add	r0, sp, #32
 296              	.LVL22:
 297              		.loc 1 271 8 view .LVU55
 298 00da FFF7FEFF 		bl	memset
 299              	.LVL23:
 300 00de 2BE2     		b	.L6
 301              	.LVL24:
 302              	.L33:
 218:Core/Src/freertos.c **** 
 303              		.loc 1 218 27 is_stmt 1 discriminator 1 view .LVU56
 304 00e0 8748     		ldr	r0, .L43+68
 305 00e2 FFF7FEFF 		bl	HAL_IWDG_Refresh
 306              	.LVL25:
 307 00e6 CEE7     		b	.L4
 308              	.L34:
 239:Core/Src/freertos.c **** 
 309              		.loc 1 239 27 discriminator 1 view .LVU57
 310 00e8 8548     		ldr	r0, .L43+68
 311 00ea FFF7FEFF 		bl	HAL_IWDG_Refresh
 312              	.LVL26:
 313 00ee D6E7     		b	.L5
 314              	.LVL27:
 315              	.L40:
 272:Core/Src/freertos.c **** 
 273:Core/Src/freertos.c ****   /* Infinite loop */
 274:Core/Src/freertos.c ****   for(;;)
 275:Core/Src/freertos.c ****   {
 276:Core/Src/freertos.c ****     osDelay(1000);
 277:Core/Src/freertos.c ****     if (is_fall == 1)
 278:Core/Src/freertos.c ****     {
 279:Core/Src/freertos.c ****       // BENH NHAN DA NGA, GUI TIN NHAN
 280:Core/Src/freertos.c ****       memset(str, '\0', sizeof(str));
 316              		.loc 1 280 7 view .LVU58
 317 00f0 4FF06409 		mov	r9, #100
 318 00f4 4A46     		mov	r2, r9
 319 00f6 0021     		movs	r1, #0
 320 00f8 07A8     		add	r0, sp, #28
 321 00fa FFF7FEFF 		bl	memset
 322              	.LVL28:
 281:Core/Src/freertos.c ****       memset(SMS, '\0', sizeof(SMS));
 323              		.loc 1 281 7 view .LVU59
 324 00fe DFF80482 		ldr	r8, .L43+72
 325 0102 C822     		movs	r2, #200
 326 0104 0021     		movs	r1, #0
 327 0106 4046     		mov	r0, r8
 328 0108 FFF7FEFF 		bl	memset
 329              	.LVL29:
 282:Core/Src/freertos.c ****       strcat(SMS, "BENH NHAN DA BI NGA! SOS!\n");
ARM GAS  C:\Users\Vento\AppData\Local\Temp\ccfmBiuF.s 			page 13


 330              		.loc 1 282 7 view .LVU60
 331 010c 4046     		mov	r0, r8
 332 010e FFF7FEFF 		bl	strlen
 333              	.LVL30:
 334 0112 8646     		mov	lr, r0
 335 0114 08EB000C 		add	ip, r8, r0
 336 0118 7B4F     		ldr	r7, .L43+76
 337 011a 0FCF     		ldmia	r7!, {r0, r1, r2, r3}
 338 011c 48F80E00 		str	r0, [r8, lr]	@ unaligned
 339 0120 CCF80410 		str	r1, [ip, #4]	@ unaligned
 340 0124 CCF80820 		str	r2, [ip, #8]	@ unaligned
 341 0128 CCF80C30 		str	r3, [ip, #12]	@ unaligned
 342 012c 03CF     		ldmia	r7!, {r0, r1}
 343 012e CCF81000 		str	r0, [ip, #16]	@ unaligned
 344 0132 CCF81410 		str	r1, [ip, #20]	@ unaligned
 345 0136 3A88     		ldrh	r2, [r7]	@ unaligned
 346 0138 BB78     		ldrb	r3, [r7, #2]	@ zero_extendqisi2
 347 013a ACF81820 		strh	r2, [ip, #24]	@ unaligned
 348 013e 8CF81A30 		strb	r3, [ip, #26]
 283:Core/Src/freertos.c ****       snprintf(str, sizeof(str), "AT+CMGS=\"%s\"\r\n", Number);
 349              		.loc 1 283 7 view .LVU61
 350 0142 724B     		ldr	r3, .L43+80
 351 0144 724A     		ldr	r2, .L43+84
 352 0146 4946     		mov	r1, r9
 353 0148 07A8     		add	r0, sp, #28
 354 014a FFF7FEFF 		bl	snprintf
 355              	.LVL31:
 284:Core/Src/freertos.c ****       if (SIM800_SendCommand(str, ">", 1000) == SIM_R_OK)
 356              		.loc 1 284 7 view .LVU62
 357              		.loc 1 284 11 is_stmt 0 view .LVU63
 358 014e 4FF47A72 		mov	r2, #1000
 359 0152 7049     		ldr	r1, .L43+88
 360 0154 07A8     		add	r0, sp, #28
 361 0156 FFF7FEFF 		bl	SIM800_SendCommand
 362              	.LVL32:
 363              		.loc 1 284 10 view .LVU64
 364 015a 0028     		cmp	r0, #0
 365 015c 40F0F581 		bne	.L7
 285:Core/Src/freertos.c ****       {
 286:Core/Src/freertos.c ****         osDelay(200);
 366              		.loc 1 286 9 is_stmt 1 view .LVU65
 367 0160 C820     		movs	r0, #200
 368 0162 FFF7FEFF 		bl	osDelay
 369              	.LVL33:
 287:Core/Src/freertos.c ****         if (is_GPS_new == 1)
 370              		.loc 1 287 9 view .LVU66
 371              		.loc 1 287 24 is_stmt 0 view .LVU67
 372 0166 6C4B     		ldr	r3, .L43+92
 373 0168 1B78     		ldrb	r3, [r3]	@ zero_extendqisi2
 374              		.loc 1 287 12 view .LVU68
 375 016a 012B     		cmp	r3, #1
 376 016c 00F0EE80 		beq	.L35
 288:Core/Src/freertos.c ****         {
 289:Core/Src/freertos.c ****           memset(str, '\0', sizeof(str));
 290:Core/Src/freertos.c ****           if (myGPS.Time.Year != 1980)
 291:Core/Src/freertos.c ****             snprintf(str, sizeof(str), "Thoi diem: %d:%d:%d %d/%d/%d\n",  myGPS.Time.Hour,
 292:Core/Src/freertos.c ****                                                                           myGPS.Time.Minute,
ARM GAS  C:\Users\Vento\AppData\Local\Temp\ccfmBiuF.s 			page 14


 293:Core/Src/freertos.c ****                                                                           myGPS.Time.Second,
 294:Core/Src/freertos.c ****                                                                           myGPS.Time.Day,
 295:Core/Src/freertos.c ****                                                                           myGPS.Time.Month,
 296:Core/Src/freertos.c ****                                                                           myGPS.Time.Year);
 297:Core/Src/freertos.c ****           else
 298:Core/Src/freertos.c ****             snprintf(str, sizeof(str), "Thoi diem: %d:%d:%d %d/%d/%d\n", 0, 0, 0, 0, 0, 0);
 299:Core/Src/freertos.c ****           strcat(SMS, str);
 300:Core/Src/freertos.c ****           memset(str, '\0', sizeof(str));
 301:Core/Src/freertos.c ****           snprintf(str, sizeof(str), "Toa do: https://www.google.com/maps/search/?api=1&query=%s,%s
 302:Core/Src/freertos.c ****           strcat(SMS, str);
 303:Core/Src/freertos.c ****         }
 304:Core/Src/freertos.c ****         else
 305:Core/Src/freertos.c ****         {
 306:Core/Src/freertos.c ****           memset(str, '\0', sizeof(str));
 377              		.loc 1 306 11 is_stmt 1 view .LVU69
 378 0170 6422     		movs	r2, #100
 379 0172 0021     		movs	r1, #0
 380 0174 07A8     		add	r0, sp, #28
 381 0176 FFF7FEFF 		bl	memset
 382              	.LVL34:
 307:Core/Src/freertos.c ****           if (myGPS.Time.Year != 1980)
 383              		.loc 1 307 11 view .LVU70
 384              		.loc 1 307 25 is_stmt 0 view .LVU71
 385 017a 684B     		ldr	r3, .L43+96
 386 017c DA8A     		ldrh	r2, [r3, #22]
 387              		.loc 1 307 14 view .LVU72
 388 017e 40F2BC73 		movw	r3, #1980
 389 0182 9A42     		cmp	r2, r3
 390 0184 00F02281 		beq	.L12
 308:Core/Src/freertos.c ****             snprintf(str, sizeof(str), "Thoi diem: %d:%d:%d %d/%d/%d\n",  myGPS.Time.Hour,
 391              		.loc 1 308 13 is_stmt 1 view .LVU73
 392              		.loc 1 308 85 is_stmt 0 view .LVU74
 393 0188 644B     		ldr	r3, .L43+96
 309:Core/Src/freertos.c ****                                                                           myGPS.Time.Minute,
 394              		.loc 1 309 85 view .LVU75
 395 018a D97E     		ldrb	r1, [r3, #27]	@ zero_extendqisi2
 310:Core/Src/freertos.c ****                                                                           myGPS.Time.Second,
 396              		.loc 1 310 85 view .LVU76
 397 018c 187F     		ldrb	r0, [r3, #28]	@ zero_extendqisi2
 311:Core/Src/freertos.c ****                                                                           myGPS.Time.Day,
 398              		.loc 1 311 85 view .LVU77
 399 018e 5C7E     		ldrb	r4, [r3, #25]	@ zero_extendqisi2
 400              	.LVL35:
 312:Core/Src/freertos.c ****                                                                           myGPS.Time.Month,
 401              		.loc 1 312 85 view .LVU78
 402 0190 1F7E     		ldrb	r7, [r3, #24]	@ zero_extendqisi2
 308:Core/Src/freertos.c ****                                                                           myGPS.Time.Minute,
 403              		.loc 1 308 13 view .LVU79
 404 0192 0492     		str	r2, [sp, #16]
 405 0194 0397     		str	r7, [sp, #12]
 406 0196 0294     		str	r4, [sp, #8]
 407 0198 0190     		str	r0, [sp, #4]
 408 019a 0091     		str	r1, [sp]
 409 019c 9B7E     		ldrb	r3, [r3, #26]	@ zero_extendqisi2
 410 019e 604A     		ldr	r2, .L43+100
 411 01a0 6421     		movs	r1, #100
 412 01a2 07A8     		add	r0, sp, #28
ARM GAS  C:\Users\Vento\AppData\Local\Temp\ccfmBiuF.s 			page 15


 413 01a4 FFF7FEFF 		bl	snprintf
 414              	.LVL36:
 415              	.L13:
 313:Core/Src/freertos.c ****                                                                           myGPS.Time.Year);
 314:Core/Src/freertos.c ****           else
 315:Core/Src/freertos.c ****             snprintf(str, sizeof(str), "Thoi diem: %d:%d:%d %d/%d/%d\n", 0, 0, 0, 0, 0, 0);
 316:Core/Src/freertos.c ****           strcat(SMS, str);
 416              		.loc 1 316 11 is_stmt 1 view .LVU80
 417 01a8 564C     		ldr	r4, .L43+72
 418 01aa 07A9     		add	r1, sp, #28
 419 01ac 2046     		mov	r0, r4
 420 01ae FFF7FEFF 		bl	strcat
 421              	.LVL37:
 317:Core/Src/freertos.c ****           memset(str, '\0', sizeof(str));
 422              		.loc 1 317 11 view .LVU81
 423 01b2 6427     		movs	r7, #100
 424 01b4 3A46     		mov	r2, r7
 425 01b6 0021     		movs	r1, #0
 426 01b8 07A8     		add	r0, sp, #28
 427 01ba FFF7FEFF 		bl	memset
 428              	.LVL38:
 318:Core/Src/freertos.c ****           snprintf(str, sizeof(str), "Toa do lan cuoi: https://www.google.com/maps/search/?api=1&qu
 429              		.loc 1 318 11 view .LVU82
 430 01be 594B     		ldr	r3, .L43+104
 431 01c0 1868     		ldr	r0, [r3]	@ float
 432 01c2 FFF7FEFF 		bl	__aeabi_f2d
 433              	.LVL39:
 434 01c6 CDE90201 		strd	r0, [sp, #8]
 435 01ca 574B     		ldr	r3, .L43+108
 436 01cc 1868     		ldr	r0, [r3]	@ float
 437 01ce FFF7FEFF 		bl	__aeabi_f2d
 438              	.LVL40:
 439 01d2 CDE90001 		strd	r0, [sp]
 440 01d6 554A     		ldr	r2, .L43+112
 441 01d8 3946     		mov	r1, r7
 442 01da 07A8     		add	r0, sp, #28
 443 01dc FFF7FEFF 		bl	snprintf
 444              	.LVL41:
 319:Core/Src/freertos.c ****           strcat(SMS, str);
 445              		.loc 1 319 11 view .LVU83
 446 01e0 07A9     		add	r1, sp, #28
 447 01e2 2046     		mov	r0, r4
 448 01e4 FFF7FEFF 		bl	strcat
 449              	.LVL42:
 450              	.L11:
 320:Core/Src/freertos.c ****         }
 321:Core/Src/freertos.c ****         HAL_UART_Transmit_IT(UART_SIM800, (uint8_t *)SMS, (uint16_t)strlen(SMS));
 451              		.loc 1 321 9 view .LVU84
 452              		.loc 1 321 69 is_stmt 0 view .LVU85
 453 01e8 464F     		ldr	r7, .L43+72
 454 01ea 3846     		mov	r0, r7
 455 01ec FFF7FEFF 		bl	strlen
 456              	.LVL43:
 457              		.loc 1 321 9 view .LVU86
 458 01f0 394C     		ldr	r4, .L43+28
 459 01f2 82B2     		uxth	r2, r0
 460 01f4 3946     		mov	r1, r7
ARM GAS  C:\Users\Vento\AppData\Local\Temp\ccfmBiuF.s 			page 16


 461 01f6 2046     		mov	r0, r4
 462 01f8 FFF7FEFF 		bl	HAL_UART_Transmit_IT
 463              	.LVL44:
 322:Core/Src/freertos.c ****         osDelay(200);
 464              		.loc 1 322 9 is_stmt 1 view .LVU87
 465 01fc C820     		movs	r0, #200
 466 01fe FFF7FEFF 		bl	osDelay
 467              	.LVL45:
 323:Core/Src/freertos.c ****         // HAL_UART_Transmit_IT(UART_SIM800, (uint8_t *){26}, (uint16_t)1);
 324:Core/Src/freertos.c ****         huart1.Instance->DR = 0b00011010;
 468              		.loc 1 324 9 view .LVU88
 469              		.loc 1 324 15 is_stmt 0 view .LVU89
 470 0202 2368     		ldr	r3, [r4]
 471              		.loc 1 324 29 view .LVU90
 472 0204 1A22     		movs	r2, #26
 473 0206 5A60     		str	r2, [r3, #4]
 325:Core/Src/freertos.c ****         osDelay(200);
 474              		.loc 1 325 9 is_stmt 1 view .LVU91
 475 0208 C820     		movs	r0, #200
 476 020a FFF7FEFF 		bl	osDelay
 477              	.LVL46:
 326:Core/Src/freertos.c ****         
 327:Core/Src/freertos.c ****         while (is_SMS_done == 0);
 478              		.loc 1 327 9 view .LVU92
 479              	.L14:
 480              		.loc 1 327 33 discriminator 1 view .LVU93
 481              		.loc 1 327 15 discriminator 1 view .LVU94
 482              		.loc 1 327 28 is_stmt 0 discriminator 1 view .LVU95
 483 020e 484B     		ldr	r3, .L43+116
 484 0210 1B78     		ldrb	r3, [r3]	@ zero_extendqisi2
 485              		.loc 1 327 15 discriminator 1 view .LVU96
 486 0212 002B     		cmp	r3, #0
 487 0214 FBD0     		beq	.L14
 328:Core/Src/freertos.c ****         is_SMS_done = 0;
 488              		.loc 1 328 9 is_stmt 1 view .LVU97
 489              		.loc 1 328 21 is_stmt 0 view .LVU98
 490 0216 0024     		movs	r4, #0
 491 0218 454B     		ldr	r3, .L43+116
 492 021a 1C70     		strb	r4, [r3]
 329:Core/Src/freertos.c ****         // HAL_GPIO_TogglePin(LED_GPIO_Port, LED_Pin);
 330:Core/Src/freertos.c ****         // GUI BAN TIN MQTT BENH NHAN NGA
 331:Core/Src/freertos.c ****         MQTT_Pub("mandevices/stroke-medical/human/fall", "1");
 493              		.loc 1 331 9 is_stmt 1 view .LVU99
 494 021c 4549     		ldr	r1, .L43+120
 495 021e 3748     		ldr	r0, .L43+64
 496 0220 FFF7FEFF 		bl	MQTT_Pub
 497              	.LVL47:
 332:Core/Src/freertos.c ****         osDelay(500);
 498              		.loc 1 332 9 view .LVU100
 499 0224 4FF4FA70 		mov	r0, #500
 500 0228 FFF7FEFF 		bl	osDelay
 501              	.LVL48:
 333:Core/Src/freertos.c ****         memset(SMS, '\0', sizeof(SMS));
 502              		.loc 1 333 9 view .LVU101
 503 022c C822     		movs	r2, #200
 504 022e 2146     		mov	r1, r4
 505 0230 3448     		ldr	r0, .L43+72
ARM GAS  C:\Users\Vento\AppData\Local\Temp\ccfmBiuF.s 			page 17


 506 0232 FFF7FEFF 		bl	memset
 507              	.LVL49:
 334:Core/Src/freertos.c ****         if (is_GPS_new == 1)  snprintf(SMS, sizeof(SMS), "%s,%s", myGPS.cLat, myGPS.cLon);
 508              		.loc 1 334 9 view .LVU102
 509              		.loc 1 334 24 is_stmt 0 view .LVU103
 510 0236 384B     		ldr	r3, .L43+92
 511 0238 1B78     		ldrb	r3, [r3]	@ zero_extendqisi2
 512              		.loc 1 334 12 view .LVU104
 513 023a 012B     		cmp	r3, #1
 514 023c 00F0D280 		beq	.L36
 335:Core/Src/freertos.c ****         else  snprintf(SMS, sizeof(SMS), "%f,%f", Lon, Lat);
 515              		.loc 1 335 15 is_stmt 1 view .LVU105
 516 0240 384B     		ldr	r3, .L43+104
 517 0242 1868     		ldr	r0, [r3]	@ float
 518 0244 FFF7FEFF 		bl	__aeabi_f2d
 519              	.LVL50:
 520 0248 CDE90201 		strd	r0, [sp, #8]
 521 024c 364B     		ldr	r3, .L43+108
 522 024e 1868     		ldr	r0, [r3]	@ float
 523 0250 FFF7FEFF 		bl	__aeabi_f2d
 524              	.LVL51:
 525 0254 CDE90001 		strd	r0, [sp]
 526 0258 374A     		ldr	r2, .L43+124
 527 025a C821     		movs	r1, #200
 528 025c 2948     		ldr	r0, .L43+72
 529 025e FFF7FEFF 		bl	snprintf
 530              	.LVL52:
 531              	.L16:
 336:Core/Src/freertos.c ****         MQTT_Pub("mandevices/stroke-medical/human/fall/loc", SMS);
 532              		.loc 1 336 9 view .LVU106
 533 0262 2849     		ldr	r1, .L43+72
 534 0264 3548     		ldr	r0, .L43+128
 535 0266 FFF7FEFF 		bl	MQTT_Pub
 536              	.LVL53:
 337:Core/Src/freertos.c ****         osDelay(500);
 537              		.loc 1 337 9 view .LVU107
 538 026a 4FF4FA70 		mov	r0, #500
 539 026e FFF7FEFF 		bl	osDelay
 540              	.LVL54:
 338:Core/Src/freertos.c ****         // HAL_GPIO_TogglePin(LED_GPIO_Port, LED_Pin);
 339:Core/Src/freertos.c ****         // HAL_UART_Transmit_IT(UART_SIM800, call, strlen(call));
 340:Core/Src/freertos.c ****         // GOI DIEN THOAI
 341:Core/Src/freertos.c ****         memset(str, '\0', sizeof(str));
 541              		.loc 1 341 9 view .LVU108
 542 0272 6424     		movs	r4, #100
 543 0274 2246     		mov	r2, r4
 544 0276 0021     		movs	r1, #0
 545 0278 07A8     		add	r0, sp, #28
 546 027a FFF7FEFF 		bl	memset
 547              	.LVL55:
 342:Core/Src/freertos.c ****         snprintf(str, sizeof(str), "ATD%s;\r\n", Number);
 548              		.loc 1 342 9 view .LVU109
 549 027e 234B     		ldr	r3, .L43+80
 550 0280 2F4A     		ldr	r2, .L43+132
 551 0282 2146     		mov	r1, r4
 552 0284 07A8     		add	r0, sp, #28
 553 0286 FFF7FEFF 		bl	snprintf
ARM GAS  C:\Users\Vento\AppData\Local\Temp\ccfmBiuF.s 			page 18


 554              	.LVL56:
 343:Core/Src/freertos.c ****         SIM800_SendCommand(str, "OK\r\n", 2000);
 555              		.loc 1 343 9 view .LVU110
 556 028a 154C     		ldr	r4, .L43+36
 557 028c 4FF4FA62 		mov	r2, #2000
 558 0290 2146     		mov	r1, r4
 559 0292 07A8     		add	r0, sp, #28
 560 0294 FFF7FEFF 		bl	SIM800_SendCommand
 561              	.LVL57:
 344:Core/Src/freertos.c ****         osDelay(30000);
 562              		.loc 1 344 9 view .LVU111
 563 0298 47F23050 		movw	r0, #30000
 564 029c FFF7FEFF 		bl	osDelay
 565              	.LVL58:
 345:Core/Src/freertos.c ****         SIM800_SendCommand("ATH\r\n", "OK\r\n", 1000);
 566              		.loc 1 345 9 view .LVU112
 567 02a0 4FF47A72 		mov	r2, #1000
 568 02a4 2146     		mov	r1, r4
 569 02a6 2748     		ldr	r0, .L43+136
 570 02a8 FFF7FEFF 		bl	SIM800_SendCommand
 571              	.LVL59:
 346:Core/Src/freertos.c ****         // HAL_GPIO_TogglePin(LED_GPIO_Port, LED_Pin);
 347:Core/Src/freertos.c ****         time = HAL_GetTick();
 572              		.loc 1 347 9 view .LVU113
 573              		.loc 1 347 16 is_stmt 0 view .LVU114
 574 02ac FFF7FEFF 		bl	HAL_GetTick
 575              	.LVL60:
 576 02b0 0446     		mov	r4, r0
 577              	.LVL61:
 348:Core/Src/freertos.c ****         is_fall = 0;
 578              		.loc 1 348 9 is_stmt 1 view .LVU115
 579              		.loc 1 348 17 is_stmt 0 view .LVU116
 580 02b2 254B     		ldr	r3, .L43+140
 581 02b4 0022     		movs	r2, #0
 582 02b6 1A70     		strb	r2, [r3]
 583 02b8 47E1     		b	.L7
 584              	.L44:
 585 02ba 00BF     		.align	2
 586              	.L43:
 587 02bc 00000000 		.word	SIM800
 588 02c0 00000000 		.word	.LC0
 589 02c4 0C000000 		.word	.LC1
 590 02c8 10000000 		.word	.LC2
 591 02cc 20000000 		.word	.LC3
 592 02d0 24000000 		.word	.LC4
 593 02d4 00000000 		.word	rx_data
 594 02d8 00000000 		.word	huart1
 595 02dc 00080140 		.word	1073809408
 596 02e0 28000000 		.word	.LC5
 597 02e4 30000000 		.word	.LC6
 598 02e8 00000000 		.word	.LANCHOR0
 599 02ec 38000000 		.word	.LC7
 600 02f0 3C000000 		.word	.LC8
 601 02f4 00000000 		.word	.LANCHOR1
 602 02f8 4C000000 		.word	.LC9
 603 02fc 50000000 		.word	.LC10
 604 0300 00000000 		.word	hiwdg
ARM GAS  C:\Users\Vento\AppData\Local\Temp\ccfmBiuF.s 			page 19


 605 0304 00000000 		.word	.LANCHOR3
 606 0308 78000000 		.word	.LC11
 607 030c 00000000 		.word	.LANCHOR4
 608 0310 94000000 		.word	.LC12
 609 0314 A4000000 		.word	.LC13
 610 0318 00000000 		.word	.LANCHOR5
 611 031c 00000000 		.word	myGPS
 612 0320 A8000000 		.word	.LC14
 613 0324 00000000 		.word	.LANCHOR6
 614 0328 00000000 		.word	.LANCHOR7
 615 032c 08010000 		.word	.LC16
 616 0330 00000000 		.word	.LANCHOR8
 617 0334 50010000 		.word	.LC17
 618 0338 5C010000 		.word	.LC19
 619 033c 64010000 		.word	.LC20
 620 0340 90010000 		.word	.LC21
 621 0344 9C010000 		.word	.LC22
 622 0348 00000000 		.word	.LANCHOR2
 623              	.LVL62:
 624              	.L35:
 289:Core/Src/freertos.c ****           if (myGPS.Time.Year != 1980)
 625              		.loc 1 289 11 is_stmt 1 view .LVU117
 626 034c 4A46     		mov	r2, r9
 627 034e 0021     		movs	r1, #0
 628 0350 07A8     		add	r0, sp, #28
 629 0352 FFF7FEFF 		bl	memset
 630              	.LVL63:
 290:Core/Src/freertos.c ****             snprintf(str, sizeof(str), "Thoi diem: %d:%d:%d %d/%d/%d\n",  myGPS.Time.Hour,
 631              		.loc 1 290 11 view .LVU118
 290:Core/Src/freertos.c ****             snprintf(str, sizeof(str), "Thoi diem: %d:%d:%d %d/%d/%d\n",  myGPS.Time.Hour,
 632              		.loc 1 290 25 is_stmt 0 view .LVU119
 633 0356 A94B     		ldr	r3, .L45
 634 0358 DA8A     		ldrh	r2, [r3, #22]
 290:Core/Src/freertos.c ****             snprintf(str, sizeof(str), "Thoi diem: %d:%d:%d %d/%d/%d\n",  myGPS.Time.Hour,
 635              		.loc 1 290 14 view .LVU120
 636 035a 40F2BC73 		movw	r3, #1980
 637 035e 9A42     		cmp	r2, r3
 638 0360 28D0     		beq	.L9
 291:Core/Src/freertos.c ****                                                                           myGPS.Time.Minute,
 639              		.loc 1 291 13 is_stmt 1 view .LVU121
 291:Core/Src/freertos.c ****                                                                           myGPS.Time.Minute,
 640              		.loc 1 291 85 is_stmt 0 view .LVU122
 641 0362 A64B     		ldr	r3, .L45
 292:Core/Src/freertos.c ****                                                                           myGPS.Time.Second,
 642              		.loc 1 292 85 view .LVU123
 643 0364 D97E     		ldrb	r1, [r3, #27]	@ zero_extendqisi2
 293:Core/Src/freertos.c ****                                                                           myGPS.Time.Day,
 644              		.loc 1 293 85 view .LVU124
 645 0366 187F     		ldrb	r0, [r3, #28]	@ zero_extendqisi2
 294:Core/Src/freertos.c ****                                                                           myGPS.Time.Month,
 646              		.loc 1 294 85 view .LVU125
 647 0368 5C7E     		ldrb	r4, [r3, #25]	@ zero_extendqisi2
 648              	.LVL64:
 295:Core/Src/freertos.c ****                                                                           myGPS.Time.Year);
 649              		.loc 1 295 85 view .LVU126
 650 036a 1F7E     		ldrb	r7, [r3, #24]	@ zero_extendqisi2
 291:Core/Src/freertos.c ****                                                                           myGPS.Time.Minute,
ARM GAS  C:\Users\Vento\AppData\Local\Temp\ccfmBiuF.s 			page 20


 651              		.loc 1 291 13 view .LVU127
 652 036c 0492     		str	r2, [sp, #16]
 653 036e 0397     		str	r7, [sp, #12]
 654 0370 0294     		str	r4, [sp, #8]
 655 0372 0190     		str	r0, [sp, #4]
 656 0374 0091     		str	r1, [sp]
 657 0376 9B7E     		ldrb	r3, [r3, #26]	@ zero_extendqisi2
 658 0378 A14A     		ldr	r2, .L45+4
 659 037a 4946     		mov	r1, r9
 660 037c 07A8     		add	r0, sp, #28
 661 037e FFF7FEFF 		bl	snprintf
 662              	.LVL65:
 663              	.L10:
 299:Core/Src/freertos.c ****           memset(str, '\0', sizeof(str));
 664              		.loc 1 299 11 is_stmt 1 view .LVU128
 665 0382 A04C     		ldr	r4, .L45+8
 666 0384 07A9     		add	r1, sp, #28
 667 0386 2046     		mov	r0, r4
 668 0388 FFF7FEFF 		bl	strcat
 669              	.LVL66:
 300:Core/Src/freertos.c ****           snprintf(str, sizeof(str), "Toa do: https://www.google.com/maps/search/?api=1&query=%s,%s
 670              		.loc 1 300 11 view .LVU129
 671 038c 6427     		movs	r7, #100
 672 038e 3A46     		mov	r2, r7
 673 0390 0021     		movs	r1, #0
 674 0392 07A8     		add	r0, sp, #28
 675 0394 FFF7FEFF 		bl	memset
 676              	.LVL67:
 301:Core/Src/freertos.c ****           strcat(SMS, str);
 677              		.loc 1 301 11 view .LVU130
 678 0398 9B4B     		ldr	r3, .L45+12
 679 039a 03F10E02 		add	r2, r3, #14
 680 039e 0092     		str	r2, [sp]
 681 03a0 9A4A     		ldr	r2, .L45+16
 682 03a2 3946     		mov	r1, r7
 683 03a4 07A8     		add	r0, sp, #28
 684 03a6 FFF7FEFF 		bl	snprintf
 685              	.LVL68:
 302:Core/Src/freertos.c ****         }
 686              		.loc 1 302 11 view .LVU131
 687 03aa 07A9     		add	r1, sp, #28
 688 03ac 2046     		mov	r0, r4
 689 03ae FFF7FEFF 		bl	strcat
 690              	.LVL69:
 691 03b2 19E7     		b	.L11
 692              	.LVL70:
 693              	.L9:
 298:Core/Src/freertos.c ****           strcat(SMS, str);
 694              		.loc 1 298 13 view .LVU132
 695 03b4 0023     		movs	r3, #0
 696 03b6 0493     		str	r3, [sp, #16]
 697 03b8 0393     		str	r3, [sp, #12]
 698 03ba 0293     		str	r3, [sp, #8]
 699 03bc 0193     		str	r3, [sp, #4]
 700 03be 0093     		str	r3, [sp]
 701 03c0 8F4A     		ldr	r2, .L45+4
 702 03c2 6421     		movs	r1, #100
ARM GAS  C:\Users\Vento\AppData\Local\Temp\ccfmBiuF.s 			page 21


 703 03c4 07A8     		add	r0, sp, #28
 704 03c6 FFF7FEFF 		bl	snprintf
 705              	.LVL71:
 706 03ca DAE7     		b	.L10
 707              	.L12:
 315:Core/Src/freertos.c ****           strcat(SMS, str);
 708              		.loc 1 315 13 view .LVU133
 709 03cc 0023     		movs	r3, #0
 710 03ce 0493     		str	r3, [sp, #16]
 711 03d0 0393     		str	r3, [sp, #12]
 712 03d2 0293     		str	r3, [sp, #8]
 713 03d4 0193     		str	r3, [sp, #4]
 714 03d6 0093     		str	r3, [sp]
 715 03d8 894A     		ldr	r2, .L45+4
 716 03da 6421     		movs	r1, #100
 717 03dc 07A8     		add	r0, sp, #28
 718 03de FFF7FEFF 		bl	snprintf
 719              	.LVL72:
 720 03e2 E1E6     		b	.L13
 721              	.LVL73:
 722              	.L36:
 334:Core/Src/freertos.c ****         else  snprintf(SMS, sizeof(SMS), "%f,%f", Lon, Lat);
 723              		.loc 1 334 31 discriminator 1 view .LVU134
 724 03e4 884B     		ldr	r3, .L45+12
 725 03e6 03F10E02 		add	r2, r3, #14
 726 03ea 0092     		str	r2, [sp]
 727 03ec 884A     		ldr	r2, .L45+20
 728 03ee C821     		movs	r1, #200
 729 03f0 8448     		ldr	r0, .L45+8
 730 03f2 FFF7FEFF 		bl	snprintf
 731              	.LVL74:
 732 03f6 34E7     		b	.L16
 733              	.LVL75:
 734              	.L41:
 349:Core/Src/freertos.c ****       }
 350:Core/Src/freertos.c ****     }
 351:Core/Src/freertos.c ****     if ((HAL_GetTick() - time) >= 60000)
 352:Core/Src/freertos.c ****     {
 353:Core/Src/freertos.c ****       // ban tin ping moi 60s
 354:Core/Src/freertos.c ****       MQTT_Pub("mandevices/stroke-medical/human/fall", "0");
 735              		.loc 1 354 7 view .LVU135
 736 03f8 8649     		ldr	r1, .L45+24
 737 03fa 8748     		ldr	r0, .L45+28
 738 03fc FFF7FEFF 		bl	MQTT_Pub
 739              	.LVL76:
 355:Core/Src/freertos.c ****       time = HAL_GetTick();
 740              		.loc 1 355 7 view .LVU136
 741              		.loc 1 355 14 is_stmt 0 view .LVU137
 742 0400 FFF7FEFF 		bl	HAL_GetTick
 743              	.LVL77:
 744 0404 0446     		mov	r4, r0
 745              	.LVL78:
 746              		.loc 1 355 14 view .LVU138
 747 0406 A8E0     		b	.L17
 748              	.LVL79:
 749              	.L42:
 356:Core/Src/freertos.c ****     }
ARM GAS  C:\Users\Vento\AppData\Local\Temp\ccfmBiuF.s 			page 22


 357:Core/Src/freertos.c ****     if ((HAL_GetTick() - timeBatt) >= 900000)
 358:Core/Src/freertos.c ****     {
 359:Core/Src/freertos.c ****       getBattery();
 750              		.loc 1 359 7 is_stmt 1 view .LVU139
 751 0408 FFF7FEFF 		bl	getBattery
 752              	.LVL80:
 360:Core/Src/freertos.c ****       MQTT_PubUint8("mandevices/stroke-medical/human/SIMBattP", SIM800_Batt.BattPerc);
 753              		.loc 1 360 7 view .LVU140
 754 040c 834C     		ldr	r4, .L45+32
 755              	.LVL81:
 756              		.loc 1 360 7 is_stmt 0 view .LVU141
 757 040e 2178     		ldrb	r1, [r4]	@ zero_extendqisi2
 758 0410 8348     		ldr	r0, .L45+36
 759 0412 FFF7FEFF 		bl	MQTT_PubUint8
 760              	.LVL82:
 361:Core/Src/freertos.c ****       MQTT_PubUint16("mandevices/stroke-medical/human/SIMBattV", SIM800_Batt.BattVol);
 761              		.loc 1 361 7 is_stmt 1 view .LVU142
 762 0416 6188     		ldrh	r1, [r4, #2]
 763 0418 8248     		ldr	r0, .L45+40
 764 041a FFF7FEFF 		bl	MQTT_PubUint16
 765              	.LVL83:
 362:Core/Src/freertos.c ****       if ((SIM800_Batt.BattPerc <= 65) || (SIM800_Batt.BattVol <= 3.9))
 766              		.loc 1 362 7 view .LVU143
 767              		.loc 1 362 23 is_stmt 0 view .LVU144
 768 041e 2378     		ldrb	r3, [r4]	@ zero_extendqisi2
 769              		.loc 1 362 10 view .LVU145
 770 0420 412B     		cmp	r3, #65
 771 0422 02D9     		bls	.L19
 772              		.loc 1 362 55 discriminator 1 view .LVU146
 773 0424 6388     		ldrh	r3, [r4, #2]
 774              		.loc 1 362 40 discriminator 1 view .LVU147
 775 0426 032B     		cmp	r3, #3
 776 0428 23D8     		bhi	.L20
 777              	.L19:
 363:Core/Src/freertos.c ****       {
 364:Core/Src/freertos.c ****         memset(str, '\0', sizeof(str));
 778              		.loc 1 364 9 is_stmt 1 view .LVU148
 779 042a 6424     		movs	r4, #100
 780 042c 2246     		mov	r2, r4
 781 042e 0021     		movs	r1, #0
 782 0430 07A8     		add	r0, sp, #28
 783 0432 FFF7FEFF 		bl	memset
 784              	.LVL84:
 365:Core/Src/freertos.c ****         snprintf(str, sizeof(str), "AT+CMGS=\"%s\"\r\n", Number);
 785              		.loc 1 365 9 view .LVU149
 786 0436 7C4B     		ldr	r3, .L45+44
 787 0438 7C4A     		ldr	r2, .L45+48
 788 043a 2146     		mov	r1, r4
 789 043c 07A8     		add	r0, sp, #28
 790 043e FFF7FEFF 		bl	snprintf
 791              	.LVL85:
 366:Core/Src/freertos.c ****         if (SIM800_SendCommand(str, ">", 1000) == SIM_R_OK)
 792              		.loc 1 366 9 view .LVU150
 793              		.loc 1 366 13 is_stmt 0 view .LVU151
 794 0442 4FF47A72 		mov	r2, #1000
 795 0446 7A49     		ldr	r1, .L45+52
 796 0448 07A8     		add	r0, sp, #28
ARM GAS  C:\Users\Vento\AppData\Local\Temp\ccfmBiuF.s 			page 23


 797 044a FFF7FEFF 		bl	SIM800_SendCommand
 798              	.LVL86:
 799              		.loc 1 366 12 view .LVU152
 800 044e B8B1     		cbz	r0, .L37
 801              	.LVL87:
 802              	.L21:
 367:Core/Src/freertos.c ****         {
 368:Core/Src/freertos.c ****           osDelay(200);
 369:Core/Src/freertos.c ****           memset(str, '\0', sizeof(str));
 370:Core/Src/freertos.c ****           snprintf(str, sizeof(str), "Pin cua thiet bi dang o muc yeu, hay mang thiet bi ve tram sa
 371:Core/Src/freertos.c ****           HAL_UART_Transmit_IT(UART_SIM800, (uint8_t *)str, (uint16_t)strlen(str));
 372:Core/Src/freertos.c ****           osDelay(200);
 373:Core/Src/freertos.c ****           huart1.Instance->DR = 0b00011010;
 374:Core/Src/freertos.c ****           osDelay(200);
 375:Core/Src/freertos.c ****           while (is_SMS_done == 0);
 376:Core/Src/freertos.c ****           is_SMS_done = 0;
 377:Core/Src/freertos.c ****         }
 378:Core/Src/freertos.c ****         HAL_GPIO_WritePin(SIM_PWRKEY_GPIO_Port, SIM_PWRKEY_Pin, 1);
 803              		.loc 1 378 9 is_stmt 1 view .LVU153
 804 0450 784C     		ldr	r4, .L45+56
 805 0452 0122     		movs	r2, #1
 806 0454 4FF48071 		mov	r1, #256
 807 0458 2046     		mov	r0, r4
 808 045a FFF7FEFF 		bl	HAL_GPIO_WritePin
 809              	.LVL88:
 379:Core/Src/freertos.c ****         osDelay(2000);
 810              		.loc 1 379 9 view .LVU154
 811 045e 4FF4FA60 		mov	r0, #2000
 812 0462 FFF7FEFF 		bl	osDelay
 813              	.LVL89:
 380:Core/Src/freertos.c ****         HAL_GPIO_WritePin(SIM_PWRKEY_GPIO_Port, SIM_PWRKEY_Pin, 0);
 814              		.loc 1 380 9 view .LVU155
 815 0466 0022     		movs	r2, #0
 816 0468 4FF48071 		mov	r1, #256
 817 046c 2046     		mov	r0, r4
 818 046e FFF7FEFF 		bl	HAL_GPIO_WritePin
 819              	.LVL90:
 820              	.L20:
 381:Core/Src/freertos.c ****       }
 382:Core/Src/freertos.c ****       time = HAL_GetTick();
 821              		.loc 1 382 7 view .LVU156
 822              		.loc 1 382 14 is_stmt 0 view .LVU157
 823 0472 FFF7FEFF 		bl	HAL_GetTick
 824              	.LVL91:
 825 0476 0446     		mov	r4, r0
 826              	.LVL92:
 383:Core/Src/freertos.c ****       timeBatt = HAL_GetTick();
 827              		.loc 1 383 7 is_stmt 1 view .LVU158
 828              		.loc 1 383 18 is_stmt 0 view .LVU159
 829 0478 FFF7FEFF 		bl	HAL_GetTick
 830              	.LVL93:
 831              		.loc 1 383 18 view .LVU160
 832 047c 0646     		mov	r6, r0
 833              	.LVL94:
 834              		.loc 1 383 18 view .LVU161
 835 047e 73E0     		b	.L18
 836              	.LVL95:
ARM GAS  C:\Users\Vento\AppData\Local\Temp\ccfmBiuF.s 			page 24


 837              	.L37:
 368:Core/Src/freertos.c ****           memset(str, '\0', sizeof(str));
 838              		.loc 1 368 11 is_stmt 1 view .LVU162
 839 0480 C820     		movs	r0, #200
 840 0482 FFF7FEFF 		bl	osDelay
 841              	.LVL96:
 369:Core/Src/freertos.c ****           snprintf(str, sizeof(str), "Pin cua thiet bi dang o muc yeu, hay mang thiet bi ve tram sa
 842              		.loc 1 369 11 view .LVU163
 843 0486 2246     		mov	r2, r4
 844 0488 0021     		movs	r1, #0
 845 048a 07A8     		add	r0, sp, #28
 846 048c FFF7FEFF 		bl	memset
 847              	.LVL97:
 370:Core/Src/freertos.c ****           HAL_UART_Transmit_IT(UART_SIM800, (uint8_t *)str, (uint16_t)strlen(str));
 848              		.loc 1 370 11 view .LVU164
 849 0490 07AC     		add	r4, sp, #28
 850 0492 694E     		ldr	r6, .L45+60
 851              	.LVL98:
 370:Core/Src/freertos.c ****           HAL_UART_Transmit_IT(UART_SIM800, (uint8_t *)str, (uint16_t)strlen(str));
 852              		.loc 1 370 11 is_stmt 0 view .LVU165
 853 0494 0FCE     		ldmia	r6!, {r0, r1, r2, r3}
 854 0496 0FC4     		stmia	r4!, {r0, r1, r2, r3}
 855 0498 0FCE     		ldmia	r6!, {r0, r1, r2, r3}
 856 049a 0FC4     		stmia	r4!, {r0, r1, r2, r3}
 857 049c 0FCE     		ldmia	r6!, {r0, r1, r2, r3}
 858 049e 0FC4     		stmia	r4!, {r0, r1, r2, r3}
 859 04a0 96E80F00 		ldm	r6, {r0, r1, r2, r3}
 860 04a4 07C4     		stmia	r4!, {r0, r1, r2}
 861 04a6 24F8023B 		strh	r3, [r4], #2	@ movhi
 862 04aa 1B0C     		lsrs	r3, r3, #16
 863 04ac 2370     		strb	r3, [r4]
 371:Core/Src/freertos.c ****           osDelay(200);
 864              		.loc 1 371 11 is_stmt 1 view .LVU166
 371:Core/Src/freertos.c ****           osDelay(200);
 865              		.loc 1 371 71 is_stmt 0 view .LVU167
 866 04ae 07A8     		add	r0, sp, #28
 867 04b0 FFF7FEFF 		bl	strlen
 868              	.LVL99:
 371:Core/Src/freertos.c ****           osDelay(200);
 869              		.loc 1 371 11 view .LVU168
 870 04b4 614C     		ldr	r4, .L45+64
 871 04b6 82B2     		uxth	r2, r0
 872 04b8 07A9     		add	r1, sp, #28
 873 04ba 2046     		mov	r0, r4
 874 04bc FFF7FEFF 		bl	HAL_UART_Transmit_IT
 875              	.LVL100:
 372:Core/Src/freertos.c ****           huart1.Instance->DR = 0b00011010;
 876              		.loc 1 372 11 is_stmt 1 view .LVU169
 877 04c0 C820     		movs	r0, #200
 878 04c2 FFF7FEFF 		bl	osDelay
 879              	.LVL101:
 373:Core/Src/freertos.c ****           osDelay(200);
 880              		.loc 1 373 11 view .LVU170
 373:Core/Src/freertos.c ****           osDelay(200);
 881              		.loc 1 373 17 is_stmt 0 view .LVU171
 882 04c6 2368     		ldr	r3, [r4]
 373:Core/Src/freertos.c ****           osDelay(200);
ARM GAS  C:\Users\Vento\AppData\Local\Temp\ccfmBiuF.s 			page 25


 883              		.loc 1 373 31 view .LVU172
 884 04c8 1A22     		movs	r2, #26
 885 04ca 5A60     		str	r2, [r3, #4]
 374:Core/Src/freertos.c ****           while (is_SMS_done == 0);
 886              		.loc 1 374 11 is_stmt 1 view .LVU173
 887 04cc C820     		movs	r0, #200
 888 04ce FFF7FEFF 		bl	osDelay
 889              	.LVL102:
 375:Core/Src/freertos.c ****           is_SMS_done = 0;
 890              		.loc 1 375 11 view .LVU174
 891              	.L22:
 375:Core/Src/freertos.c ****           is_SMS_done = 0;
 892              		.loc 1 375 35 discriminator 1 view .LVU175
 375:Core/Src/freertos.c ****           is_SMS_done = 0;
 893              		.loc 1 375 17 discriminator 1 view .LVU176
 375:Core/Src/freertos.c ****           is_SMS_done = 0;
 894              		.loc 1 375 30 is_stmt 0 discriminator 1 view .LVU177
 895 04d2 5B4B     		ldr	r3, .L45+68
 896 04d4 1B78     		ldrb	r3, [r3]	@ zero_extendqisi2
 375:Core/Src/freertos.c ****           is_SMS_done = 0;
 897              		.loc 1 375 17 discriminator 1 view .LVU178
 898 04d6 002B     		cmp	r3, #0
 899 04d8 FBD0     		beq	.L22
 376:Core/Src/freertos.c ****         }
 900              		.loc 1 376 11 is_stmt 1 view .LVU179
 376:Core/Src/freertos.c ****         }
 901              		.loc 1 376 23 is_stmt 0 view .LVU180
 902 04da 594B     		ldr	r3, .L45+68
 903 04dc 0022     		movs	r2, #0
 904 04de 1A70     		strb	r2, [r3]
 905 04e0 B6E7     		b	.L21
 906              	.LVL103:
 907              	.L23:
 384:Core/Src/freertos.c ****     }
 385:Core/Src/freertos.c ****     if ((SIM800.mqttServer.connect == 0) || (SIM800_Status.SIM == 0) || (SIM800_Status.GPRS == 0) |
 386:Core/Src/freertos.c ****     {
 387:Core/Src/freertos.c ****       // ket noi lai MQTT
 388:Core/Src/freertos.c ****       SIM800_SendCommand("AT+CIPSHUT\r\n", "OK\r\n", CMD_DELAY);
 908              		.loc 1 388 7 is_stmt 1 view .LVU181
 909 04e2 584C     		ldr	r4, .L45+72
 910              	.LVL104:
 911              		.loc 1 388 7 is_stmt 0 view .LVU182
 912 04e4 4FF4FA62 		mov	r2, #2000
 913 04e8 2146     		mov	r1, r4
 914 04ea 5748     		ldr	r0, .L45+76
 915 04ec FFF7FEFF 		bl	SIM800_SendCommand
 916              	.LVL105:
 389:Core/Src/freertos.c ****       SIM800_SendCommand("AT+CIICR\r\n", "OK\r\n", CMD_DELAY);
 917              		.loc 1 389 7 is_stmt 1 view .LVU183
 918 04f0 4FF4FA62 		mov	r2, #2000
 919 04f4 2146     		mov	r1, r4
 920 04f6 5548     		ldr	r0, .L45+80
 921 04f8 FFF7FEFF 		bl	SIM800_SendCommand
 922              	.LVL106:
 390:Core/Src/freertos.c ****       SIM800_SendCommand("AT+CIFSR\r\n", "", CMD_DELAY);
 923              		.loc 1 390 7 view .LVU184
 924 04fc 4FF4FA62 		mov	r2, #2000
ARM GAS  C:\Users\Vento\AppData\Local\Temp\ccfmBiuF.s 			page 26


 925 0500 5349     		ldr	r1, .L45+84
 926 0502 5448     		ldr	r0, .L45+88
 927 0504 FFF7FEFF 		bl	SIM800_SendCommand
 928              	.LVL107:
 391:Core/Src/freertos.c ****       MQTT_Connect();
 929              		.loc 1 391 7 view .LVU185
 930 0508 FFF7FEFF 		bl	MQTT_Connect
 931              	.LVL108:
 392:Core/Src/freertos.c ****       osDelay(2000);
 932              		.loc 1 392 7 view .LVU186
 933 050c 4FF4FA60 		mov	r0, #2000
 934 0510 FFF7FEFF 		bl	osDelay
 935              	.LVL109:
 393:Core/Src/freertos.c ****       MQTT_Pub("mandevices/stroke-medical/human/fall", "0");
 936              		.loc 1 393 7 view .LVU187
 937 0514 3F49     		ldr	r1, .L45+24
 938 0516 4048     		ldr	r0, .L45+28
 939 0518 FFF7FEFF 		bl	MQTT_Pub
 940              	.LVL110:
 394:Core/Src/freertos.c ****       time = HAL_GetTick();
 941              		.loc 1 394 7 view .LVU188
 942              		.loc 1 394 14 is_stmt 0 view .LVU189
 943 051c FFF7FEFF 		bl	HAL_GetTick
 944              	.LVL111:
 945 0520 0446     		mov	r4, r0
 946              	.LVL112:
 947              	.L24:
 395:Core/Src/freertos.c ****     }
 396:Core/Src/freertos.c ****     // if (is_done == 1)
 397:Core/Src/freertos.c ****     // {
 398:Core/Src/freertos.c ****     //   // Da test xong, truyen diem test len Server
 399:Core/Src/freertos.c ****     //   is_done = 0;
 400:Core/Src/freertos.c ****     //   char str[2];
 401:Core/Src/freertos.c ****     //   sprintf(str, "%d\0", gScore);
 402:Core/Src/freertos.c ****     //   MQTT_Pub("mandevices/stroke-medical/human/test/score", str);
 403:Core/Src/freertos.c ****     //   HAL_GPIO_TogglePin(LED_GPIO_Port, LED_Pin);
 404:Core/Src/freertos.c ****     //   time = HAL_GetTick();
 405:Core/Src/freertos.c ****     //   is_test = 0;
 406:Core/Src/freertos.c ****     // }
 407:Core/Src/freertos.c ****     if ((HAL_GetTick() - GPStime) >= 15000)
 948              		.loc 1 407 5 is_stmt 1 view .LVU190
 949              		.loc 1 407 10 is_stmt 0 view .LVU191
 950 0522 FFF7FEFF 		bl	HAL_GetTick
 951              	.LVL113:
 952              		.loc 1 407 24 view .LVU192
 953 0526 431B     		subs	r3, r0, r5
 954              		.loc 1 407 8 view .LVU193
 955 0528 43F69722 		movw	r2, #14999
 956 052c 9342     		cmp	r3, r2
 957 052e 2CD8     		bhi	.L38
 958              	.L25:
 408:Core/Src/freertos.c ****     {
 409:Core/Src/freertos.c ****       // SIM800_SendCommand("AT+CGNSINF\r\n", "", 10000);
 410:Core/Src/freertos.c ****       getGPS();
 411:Core/Src/freertos.c ****       if ((Lon != myGPS.Longitude) || (Lat != myGPS.Latitude))
 412:Core/Src/freertos.c ****       {
 413:Core/Src/freertos.c ****         osTimerStop(SecTimerHandle);
ARM GAS  C:\Users\Vento\AppData\Local\Temp\ccfmBiuF.s 			page 27


 414:Core/Src/freertos.c ****         osTimerStart(SecTimerHandle, 500);
 415:Core/Src/freertos.c ****         is_GPS_new = 1;
 416:Core/Src/freertos.c ****         Lon = myGPS.Longitude;
 417:Core/Src/freertos.c ****         Lat = myGPS.Latitude;
 418:Core/Src/freertos.c ****       }
 419:Core/Src/freertos.c ****       else
 420:Core/Src/freertos.c ****       {
 421:Core/Src/freertos.c ****         osTimerStop(SecTimerHandle);
 422:Core/Src/freertos.c ****         osTimerStart(SecTimerHandle, 2000);
 423:Core/Src/freertos.c ****         is_GPS_new = 0;
 424:Core/Src/freertos.c ****       }
 425:Core/Src/freertos.c ****       // if ((myGPS.Latitude != 0) && (myGPS.Longitude != 0))
 426:Core/Src/freertos.c ****       // {
 427:Core/Src/freertos.c ****       //   memset(SMS, '\0', sizeof(SMS));
 428:Core/Src/freertos.c ****       //   snprintf(SMS, sizeof(SMS), "%s,%s", myGPS.cLat, myGPS.cLon);
 429:Core/Src/freertos.c ****       //   MQTT_Pub("mandevices/stroke-medical/human/fall/loc", SMS);
 430:Core/Src/freertos.c ****       //   time = HAL_GetTick();
 431:Core/Src/freertos.c ****       // }
 432:Core/Src/freertos.c ****       GPStime = HAL_GetTick();
 433:Core/Src/freertos.c ****     }
 434:Core/Src/freertos.c ****     // HAL_GPIO_TogglePin(LED_GPIO_Port, LED_Pin);
 435:Core/Src/freertos.c ****     if (is_MPU_OK == 1)     HAL_IWDG_Refresh(&hiwdg);
 959              		.loc 1 435 5 is_stmt 1 view .LVU194
 960              		.loc 1 435 19 is_stmt 0 view .LVU195
 961 0530 494B     		ldr	r3, .L45+92
 962 0532 1B78     		ldrb	r3, [r3]	@ zero_extendqisi2
 963              		.loc 1 435 8 view .LVU196
 964 0534 012B     		cmp	r3, #1
 965 0536 5CD0     		beq	.L39
 966              	.L6:
 274:Core/Src/freertos.c ****   {
 967              		.loc 1 274 3 is_stmt 1 view .LVU197
 276:Core/Src/freertos.c ****     if (is_fall == 1)
 968              		.loc 1 276 5 view .LVU198
 969 0538 4FF47A70 		mov	r0, #1000
 970 053c FFF7FEFF 		bl	osDelay
 971              	.LVL114:
 277:Core/Src/freertos.c ****     {
 972              		.loc 1 277 5 view .LVU199
 277:Core/Src/freertos.c ****     {
 973              		.loc 1 277 17 is_stmt 0 view .LVU200
 974 0540 464B     		ldr	r3, .L45+96
 975 0542 1B78     		ldrb	r3, [r3]	@ zero_extendqisi2
 277:Core/Src/freertos.c ****     {
 976              		.loc 1 277 8 view .LVU201
 977 0544 012B     		cmp	r3, #1
 978 0546 3FF4D3AD 		beq	.L40
 979              	.L7:
 351:Core/Src/freertos.c ****     {
 980              		.loc 1 351 5 is_stmt 1 view .LVU202
 351:Core/Src/freertos.c ****     {
 981              		.loc 1 351 10 is_stmt 0 view .LVU203
 982 054a FFF7FEFF 		bl	HAL_GetTick
 983              	.LVL115:
 351:Core/Src/freertos.c ****     {
 984              		.loc 1 351 24 view .LVU204
 985 054e 031B     		subs	r3, r0, r4
ARM GAS  C:\Users\Vento\AppData\Local\Temp\ccfmBiuF.s 			page 28


 351:Core/Src/freertos.c ****     {
 986              		.loc 1 351 8 view .LVU205
 987 0550 4EF65F22 		movw	r2, #59999
 988 0554 9342     		cmp	r3, r2
 989 0556 3FF64FAF 		bhi	.L41
 990              	.L17:
 357:Core/Src/freertos.c ****     {
 991              		.loc 1 357 5 is_stmt 1 view .LVU206
 357:Core/Src/freertos.c ****     {
 992              		.loc 1 357 10 is_stmt 0 view .LVU207
 993 055a FFF7FEFF 		bl	HAL_GetTick
 994              	.LVL116:
 357:Core/Src/freertos.c ****     {
 995              		.loc 1 357 24 view .LVU208
 996 055e 831B     		subs	r3, r0, r6
 357:Core/Src/freertos.c ****     {
 997              		.loc 1 357 8 view .LVU209
 998 0560 3F4A     		ldr	r2, .L45+100
 999 0562 9342     		cmp	r3, r2
 1000 0564 3FF650AF 		bhi	.L42
 1001              	.L18:
 385:Core/Src/freertos.c ****     {
 1002              		.loc 1 385 5 is_stmt 1 view .LVU210
 385:Core/Src/freertos.c ****     {
 1003              		.loc 1 385 27 is_stmt 0 view .LVU211
 1004 0568 3E4B     		ldr	r3, .L45+104
 1005 056a 9B7C     		ldrb	r3, [r3, #18]	@ zero_extendqisi2
 385:Core/Src/freertos.c ****     {
 1006              		.loc 1 385 8 view .LVU212
 1007 056c 002B     		cmp	r3, #0
 1008 056e B8D0     		beq	.L23
 385:Core/Src/freertos.c ****     {
 1009              		.loc 1 385 59 discriminator 1 view .LVU213
 1010 0570 3D4B     		ldr	r3, .L45+108
 1011 0572 1B78     		ldrb	r3, [r3]	@ zero_extendqisi2
 385:Core/Src/freertos.c ****     {
 1012              		.loc 1 385 42 discriminator 1 view .LVU214
 1013 0574 002B     		cmp	r3, #0
 1014 0576 B4D0     		beq	.L23
 385:Core/Src/freertos.c ****     {
 1015              		.loc 1 385 87 discriminator 2 view .LVU215
 1016 0578 3B4B     		ldr	r3, .L45+108
 1017 057a 5B78     		ldrb	r3, [r3, #1]	@ zero_extendqisi2
 385:Core/Src/freertos.c ****     {
 1018              		.loc 1 385 70 discriminator 2 view .LVU216
 1019 057c 002B     		cmp	r3, #0
 1020 057e B0D0     		beq	.L23
 385:Core/Src/freertos.c ****     {
 1021              		.loc 1 385 116 discriminator 3 view .LVU217
 1022 0580 394B     		ldr	r3, .L45+108
 1023 0582 9B78     		ldrb	r3, [r3, #2]	@ zero_extendqisi2
 385:Core/Src/freertos.c ****     {
 1024              		.loc 1 385 99 discriminator 3 view .LVU218
 1025 0584 002B     		cmp	r3, #0
 1026 0586 CCD1     		bne	.L24
 1027 0588 ABE7     		b	.L23
 1028              	.L38:
ARM GAS  C:\Users\Vento\AppData\Local\Temp\ccfmBiuF.s 			page 29


 410:Core/Src/freertos.c ****       if ((Lon != myGPS.Longitude) || (Lat != myGPS.Latitude))
 1029              		.loc 1 410 7 is_stmt 1 view .LVU219
 1030 058a FFF7FEFF 		bl	getGPS
 1031              	.LVL117:
 411:Core/Src/freertos.c ****       {
 1032              		.loc 1 411 7 view .LVU220
 411:Core/Src/freertos.c ****       {
 1033              		.loc 1 411 10 is_stmt 0 view .LVU221
 1034 058e 374B     		ldr	r3, .L45+112
 1035 0590 1968     		ldr	r1, [r3]	@ float
 1036 0592 1A4B     		ldr	r3, .L45
 1037 0594 986B     		ldr	r0, [r3, #56]	@ float
 1038 0596 FFF7FEFF 		bl	__aeabi_fcmpeq
 1039              	.LVL118:
 1040 059a 30B1     		cbz	r0, .L26
 411:Core/Src/freertos.c ****       {
 1041              		.loc 1 411 36 discriminator 1 view .LVU222
 1042 059c 344B     		ldr	r3, .L45+116
 1043 059e 1968     		ldr	r1, [r3]	@ float
 1044 05a0 164B     		ldr	r3, .L45
 1045 05a2 986A     		ldr	r0, [r3, #40]	@ float
 1046 05a4 FFF7FEFF 		bl	__aeabi_fcmpeq
 1047              	.LVL119:
 1048 05a8 B0B9     		cbnz	r0, .L31
 1049              	.L26:
 413:Core/Src/freertos.c ****         osTimerStart(SecTimerHandle, 500);
 1050              		.loc 1 413 9 is_stmt 1 view .LVU223
 1051 05aa 324D     		ldr	r5, .L45+120
 1052              	.LVL120:
 413:Core/Src/freertos.c ****         osTimerStart(SecTimerHandle, 500);
 1053              		.loc 1 413 9 is_stmt 0 view .LVU224
 1054 05ac 2868     		ldr	r0, [r5]
 1055 05ae FFF7FEFF 		bl	osTimerStop
 1056              	.LVL121:
 414:Core/Src/freertos.c ****         is_GPS_new = 1;
 1057              		.loc 1 414 9 is_stmt 1 view .LVU225
 1058 05b2 4FF4FA71 		mov	r1, #500
 1059 05b6 2868     		ldr	r0, [r5]
 1060 05b8 FFF7FEFF 		bl	osTimerStart
 1061              	.LVL122:
 415:Core/Src/freertos.c ****         Lon = myGPS.Longitude;
 1062              		.loc 1 415 9 view .LVU226
 415:Core/Src/freertos.c ****         Lon = myGPS.Longitude;
 1063              		.loc 1 415 20 is_stmt 0 view .LVU227
 1064 05bc 2E4B     		ldr	r3, .L45+124
 1065 05be 0122     		movs	r2, #1
 1066 05c0 1A70     		strb	r2, [r3]
 416:Core/Src/freertos.c ****         Lat = myGPS.Latitude;
 1067              		.loc 1 416 9 is_stmt 1 view .LVU228
 416:Core/Src/freertos.c ****         Lat = myGPS.Latitude;
 1068              		.loc 1 416 20 is_stmt 0 view .LVU229
 1069 05c2 0E4B     		ldr	r3, .L45
 1070 05c4 996B     		ldr	r1, [r3, #56]	@ float
 416:Core/Src/freertos.c ****         Lat = myGPS.Latitude;
 1071              		.loc 1 416 13 view .LVU230
 1072 05c6 294A     		ldr	r2, .L45+112
 1073 05c8 1160     		str	r1, [r2]	@ float
ARM GAS  C:\Users\Vento\AppData\Local\Temp\ccfmBiuF.s 			page 30


 417:Core/Src/freertos.c ****       }
 1074              		.loc 1 417 9 is_stmt 1 view .LVU231
 417:Core/Src/freertos.c ****       }
 1075              		.loc 1 417 20 is_stmt 0 view .LVU232
 1076 05ca 9A6A     		ldr	r2, [r3, #40]	@ float
 417:Core/Src/freertos.c ****       }
 1077              		.loc 1 417 13 view .LVU233
 1078 05cc 284B     		ldr	r3, .L45+116
 1079 05ce 1A60     		str	r2, [r3]	@ float
 1080              	.L29:
 432:Core/Src/freertos.c ****     }
 1081              		.loc 1 432 7 is_stmt 1 view .LVU234
 432:Core/Src/freertos.c ****     }
 1082              		.loc 1 432 17 is_stmt 0 view .LVU235
 1083 05d0 FFF7FEFF 		bl	HAL_GetTick
 1084              	.LVL123:
 1085 05d4 0546     		mov	r5, r0
 1086              	.LVL124:
 432:Core/Src/freertos.c ****     }
 1087              		.loc 1 432 17 view .LVU236
 1088 05d6 ABE7     		b	.L25
 1089              	.LVL125:
 1090              	.L31:
 421:Core/Src/freertos.c ****         osTimerStart(SecTimerHandle, 2000);
 1091              		.loc 1 421 9 is_stmt 1 view .LVU237
 1092 05d8 264D     		ldr	r5, .L45+120
 1093              	.LVL126:
 421:Core/Src/freertos.c ****         osTimerStart(SecTimerHandle, 2000);
 1094              		.loc 1 421 9 is_stmt 0 view .LVU238
 1095 05da 2868     		ldr	r0, [r5]
 1096 05dc FFF7FEFF 		bl	osTimerStop
 1097              	.LVL127:
 422:Core/Src/freertos.c ****         is_GPS_new = 0;
 1098              		.loc 1 422 9 is_stmt 1 view .LVU239
 1099 05e0 4FF4FA61 		mov	r1, #2000
 1100 05e4 2868     		ldr	r0, [r5]
 1101 05e6 FFF7FEFF 		bl	osTimerStart
 1102              	.LVL128:
 423:Core/Src/freertos.c ****       }
 1103              		.loc 1 423 9 view .LVU240
 423:Core/Src/freertos.c ****       }
 1104              		.loc 1 423 20 is_stmt 0 view .LVU241
 1105 05ea 234B     		ldr	r3, .L45+124
 1106 05ec 0022     		movs	r2, #0
 1107 05ee 1A70     		strb	r2, [r3]
 1108 05f0 EEE7     		b	.L29
 1109              	.LVL129:
 1110              	.L39:
 1111              		.loc 1 435 29 is_stmt 1 discriminator 1 view .LVU242
 1112 05f2 2248     		ldr	r0, .L45+128
 1113 05f4 FFF7FEFF 		bl	HAL_IWDG_Refresh
 1114              	.LVL130:
 1115 05f8 9EE7     		b	.L6
 1116              	.L46:
 1117 05fa 00BF     		.align	2
 1118              	.L45:
 1119 05fc 00000000 		.word	myGPS
ARM GAS  C:\Users\Vento\AppData\Local\Temp\ccfmBiuF.s 			page 31


 1120 0600 A8000000 		.word	.LC14
 1121 0604 00000000 		.word	.LANCHOR3
 1122 0608 1E000000 		.word	myGPS+30
 1123 060c C8000000 		.word	.LC15
 1124 0610 54010000 		.word	.LC18
 1125 0614 4C000000 		.word	.LC9
 1126 0618 50000000 		.word	.LC10
 1127 061c 00000000 		.word	SIM800_Batt
 1128 0620 A4010000 		.word	.LC23
 1129 0624 D0010000 		.word	.LC24
 1130 0628 00000000 		.word	.LANCHOR4
 1131 062c 94000000 		.word	.LC12
 1132 0630 A4000000 		.word	.LC13
 1133 0634 00080140 		.word	1073809408
 1134 0638 FC010000 		.word	.LC25
 1135 063c 00000000 		.word	huart1
 1136 0640 00000000 		.word	.LANCHOR8
 1137 0644 28000000 		.word	.LC5
 1138 0648 3C020000 		.word	.LC26
 1139 064c 4C020000 		.word	.LC27
 1140 0650 20000000 		.word	.LC3
 1141 0654 58020000 		.word	.LC28
 1142 0658 00000000 		.word	.LANCHOR0
 1143 065c 00000000 		.word	.LANCHOR2
 1144 0660 9FBB0D00 		.word	899999
 1145 0664 00000000 		.word	SIM800
 1146 0668 00000000 		.word	SIM800_Status
 1147 066c 00000000 		.word	.LANCHOR7
 1148 0670 00000000 		.word	.LANCHOR6
 1149 0674 00000000 		.word	.LANCHOR1
 1150 0678 00000000 		.word	.LANCHOR5
 1151 067c 00000000 		.word	hiwdg
 1152              		.cfi_endproc
 1153              	.LFE73:
 1155              		.global	__aeabi_dmul
 1156              		.global	__aeabi_dadd
 1157              		.global	__aeabi_d2f
 1158              		.global	__aeabi_dcmplt
 1159              		.section	.text.Sensor_Task,"ax",%progbits
 1160              		.align	1
 1161              		.global	Sensor_Task
 1162              		.syntax unified
 1163              		.thumb
 1164              		.thumb_func
 1165              		.fpu softvfp
 1167              	Sensor_Task:
 1168              	.LVL131:
 1169              	.LFB74:
 436:Core/Src/freertos.c ****   }
 437:Core/Src/freertos.c ****   /* USER CODE END MQTT_Task */
 438:Core/Src/freertos.c **** }
 439:Core/Src/freertos.c **** 
 440:Core/Src/freertos.c **** /* USER CODE BEGIN Header_Sensor_Task */
 441:Core/Src/freertos.c **** /**
 442:Core/Src/freertos.c **** * @brief Function implementing the SENSORs thread.
 443:Core/Src/freertos.c **** * @param argument: Not used
 444:Core/Src/freertos.c **** * @retval None
ARM GAS  C:\Users\Vento\AppData\Local\Temp\ccfmBiuF.s 			page 32


 445:Core/Src/freertos.c **** */
 446:Core/Src/freertos.c **** /* USER CODE END Header_Sensor_Task */
 447:Core/Src/freertos.c **** void Sensor_Task(void *argument)
 448:Core/Src/freertos.c **** {
 1170              		.loc 1 448 1 view -0
 1171              		.cfi_startproc
 1172              		@ Volatile: function does not return.
 1173              		@ args = 0, pretend = 0, frame = 0
 1174              		@ frame_needed = 0, uses_anonymous_args = 0
 1175              		.loc 1 448 1 is_stmt 0 view .LVU244
 1176 0000 80B5     		push	{r7, lr}
 1177              	.LCFI2:
 1178              		.cfi_def_cfa_offset 8
 1179              		.cfi_offset 7, -8
 1180              		.cfi_offset 14, -4
 449:Core/Src/freertos.c ****   /* USER CODE BEGIN Sensor_Task */
 450:Core/Src/freertos.c **** 
 451:Core/Src/freertos.c ****   osDelay(1000);
 1181              		.loc 1 451 3 is_stmt 1 view .LVU245
 1182 0002 4FF47A70 		mov	r0, #1000
 1183              	.LVL132:
 1184              		.loc 1 451 3 is_stmt 0 view .LVU246
 1185 0006 FFF7FEFF 		bl	osDelay
 1186              	.LVL133:
 452:Core/Src/freertos.c ****   // Khoi tao cam bien mpu6050
 453:Core/Src/freertos.c ****   while(MPU6050_Init(&hi2c1) == MPU_nOK);
 1187              		.loc 1 453 3 is_stmt 1 view .LVU247
 1188              	.L48:
 1189              		.loc 1 453 41 discriminator 1 view .LVU248
 1190              		.loc 1 453 8 discriminator 1 view .LVU249
 1191              		.loc 1 453 9 is_stmt 0 discriminator 1 view .LVU250
 1192 000a 3548     		ldr	r0, .L61+8
 1193 000c FFF7FEFF 		bl	MPU6050_Init
 1194              	.LVL134:
 1195              		.loc 1 453 8 discriminator 1 view .LVU251
 1196 0010 0128     		cmp	r0, #1
 1197 0012 FAD0     		beq	.L48
 1198 0014 10E0     		b	.L56
 1199              	.L51:
 454:Core/Src/freertos.c ****   // osTimerStart(SecTimerHandle, 1000);
 455:Core/Src/freertos.c ****   
 456:Core/Src/freertos.c ****   // float data[20];
 457:Core/Src/freertos.c ****   /* Infinite loop */
 458:Core/Src/freertos.c ****   for(;;)
 459:Core/Src/freertos.c ****   {
 460:Core/Src/freertos.c ****     // READ SENSOR
 461:Core/Src/freertos.c ****     MPU6050_Read_Accel(&hi2c1, &MPU6050);
 462:Core/Src/freertos.c **** 
 463:Core/Src/freertos.c ****     // CALCULATE GRAVITY
 464:Core/Src/freertos.c ****     gGravity = sqrt((MPU6050.Ax)*(MPU6050.Ax) + (MPU6050.Ay)*(MPU6050.Ay) + (MPU6050.Az)*(MPU6050.A
 465:Core/Src/freertos.c **** 
 466:Core/Src/freertos.c ****     if (gGravity == 0)
 467:Core/Src/freertos.c ****     {
 468:Core/Src/freertos.c ****       // Gravity = 0 la cam bien k chay, smthg went wrong
 469:Core/Src/freertos.c ****       is_MPU_OK = 0;
 470:Core/Src/freertos.c ****     }
 471:Core/Src/freertos.c ****     if ((gGravity < 0.30) && (is_fall == 0) && (gGravity != 0))
ARM GAS  C:\Users\Vento\AppData\Local\Temp\ccfmBiuF.s 			page 33


 472:Core/Src/freertos.c ****     {
 473:Core/Src/freertos.c ****       // CHECK NGA, BENH NHAN DA NGA
 474:Core/Src/freertos.c ****       is_fall = 1;
 475:Core/Src/freertos.c ****       // HAL_GPIO_TogglePin(LED_GPIO_Port, LED_Pin);
 476:Core/Src/freertos.c ****       // vTaskResume(MQTTHandle);
 477:Core/Src/freertos.c ****     }
 478:Core/Src/freertos.c ****     if (is_MPU_OK == 0)
 1200              		.loc 1 478 5 is_stmt 1 view .LVU252
 1201              		.loc 1 478 19 is_stmt 0 view .LVU253
 1202 0016 334B     		ldr	r3, .L61+12
 1203 0018 1B78     		ldrb	r3, [r3]	@ zero_extendqisi2
 1204              		.loc 1 478 8 view .LVU254
 1205 001a 3BB9     		cbnz	r3, .L54
 1206              	.L55:
 479:Core/Src/freertos.c ****     {
 480:Core/Src/freertos.c ****       while(MPU6050_Init(&hi2c1) == MPU_nOK);
 1207              		.loc 1 480 45 is_stmt 1 discriminator 1 view .LVU255
 1208              		.loc 1 480 12 discriminator 1 view .LVU256
 1209              		.loc 1 480 13 is_stmt 0 discriminator 1 view .LVU257
 1210 001c 3048     		ldr	r0, .L61+8
 1211 001e FFF7FEFF 		bl	MPU6050_Init
 1212              	.LVL135:
 1213              		.loc 1 480 12 discriminator 1 view .LVU258
 1214 0022 0128     		cmp	r0, #1
 1215 0024 FAD0     		beq	.L55
 481:Core/Src/freertos.c ****       is_MPU_OK = 1;
 1216              		.loc 1 481 7 is_stmt 1 view .LVU259
 1217              		.loc 1 481 17 is_stmt 0 view .LVU260
 1218 0026 2F4B     		ldr	r3, .L61+12
 1219 0028 0122     		movs	r2, #1
 1220 002a 1A70     		strb	r2, [r3]
 1221              	.L54:
 482:Core/Src/freertos.c ****     }
 483:Core/Src/freertos.c ****     // if ((is_test == 1) && (is_busy == 0))
 484:Core/Src/freertos.c ****     // {
 485:Core/Src/freertos.c ****     //   // TEST
 486:Core/Src/freertos.c ****     //   HAL_GPIO_TogglePin(LED_GPIO_Port, LED_Pin);
 487:Core/Src/freertos.c ****     //   while(MPU6050_Init(&hi2c1) == MPU_nOK);
 488:Core/Src/freertos.c ****     //   for (uint8_t i = 0; i < 20; i++)
 489:Core/Src/freertos.c ****     //   {
 490:Core/Src/freertos.c ****     //     MPU6050_Read_Accel(&hi2c1, &MPU6050);
 491:Core/Src/freertos.c ****     //     data[i] = MPU6050.Az;
 492:Core/Src/freertos.c ****     //     osDelay(500);
 493:Core/Src/freertos.c ****     //   }
 494:Core/Src/freertos.c ****     //   uint8_t lowestAngelPos = 0;
 495:Core/Src/freertos.c ****     //   float error = 0;
 496:Core/Src/freertos.c ****     //   for(uint8_t i = 1; i < 20; i++)
 497:Core/Src/freertos.c ****     //   {
 498:Core/Src/freertos.c ****     //     error = data[lowestAngelPos] - data[i];
 499:Core/Src/freertos.c ****     //     if (error >= 0.03) 
 500:Core/Src/freertos.c ****     //     {
 501:Core/Src/freertos.c ****     //       lowestAngelPos = i;
 502:Core/Src/freertos.c ****     //     }
 503:Core/Src/freertos.c ****     //   }
 504:Core/Src/freertos.c ****     //   if (data[lowestAngelPos] > 0.9)
 505:Core/Src/freertos.c ****     //   {
 506:Core/Src/freertos.c ****     //     gScore = 0;
ARM GAS  C:\Users\Vento\AppData\Local\Temp\ccfmBiuF.s 			page 34


 507:Core/Src/freertos.c ****     //   }
 508:Core/Src/freertos.c ****     //   else
 509:Core/Src/freertos.c ****     //   {
 510:Core/Src/freertos.c ****     //     if (((data[lowestAngelPos] < 0.6) && (lowestAngelPos <= 10)) || (data[lowestAngelPos] < 
 511:Core/Src/freertos.c ****     //     {
 512:Core/Src/freertos.c ****     //       gScore = 3;
 513:Core/Src/freertos.c ****     //     }
 514:Core/Src/freertos.c ****     //     else if (lowestAngelPos < 10)
 515:Core/Src/freertos.c ****     //     {
 516:Core/Src/freertos.c ****     //       gScore = 1;
 517:Core/Src/freertos.c ****     //     }
 518:Core/Src/freertos.c ****     //     else
 519:Core/Src/freertos.c ****     //     {
 520:Core/Src/freertos.c ****     //       gScore = 2;
 521:Core/Src/freertos.c ****     //     }
 522:Core/Src/freertos.c ****     //   }
 523:Core/Src/freertos.c ****     //   uint8_t dead = 1;
 524:Core/Src/freertos.c ****     //   for(uint8_t i = 0; i < 20; i++)
 525:Core/Src/freertos.c ****     //   {
 526:Core/Src/freertos.c ****     //     if(data[i] > 0.25)
 527:Core/Src/freertos.c ****     //     {
 528:Core/Src/freertos.c ****     //       dead = 0;
 529:Core/Src/freertos.c ****     //     }
 530:Core/Src/freertos.c ****     //   }
 531:Core/Src/freertos.c ****     //   if(dead)
 532:Core/Src/freertos.c ****     //   {
 533:Core/Src/freertos.c ****     //     gScore = 4;
 534:Core/Src/freertos.c ****     //   }
 535:Core/Src/freertos.c ****     //   is_done = 1;
 536:Core/Src/freertos.c ****     //   HAL_GPIO_TogglePin(LED_GPIO_Port, LED_Pin);
 537:Core/Src/freertos.c ****     // }
 538:Core/Src/freertos.c **** 
 539:Core/Src/freertos.c ****     // RESET CLK
 540:Core/Src/freertos.c ****     HAL_IWDG_Refresh(&hiwdg);
 1222              		.loc 1 540 5 is_stmt 1 view .LVU261
 1223 002c 2E48     		ldr	r0, .L61+16
 1224 002e FFF7FEFF 		bl	HAL_IWDG_Refresh
 1225              	.LVL136:
 541:Core/Src/freertos.c ****     osDelay(10);
 1226              		.loc 1 541 5 view .LVU262
 1227 0032 0A20     		movs	r0, #10
 1228 0034 FFF7FEFF 		bl	osDelay
 1229              	.LVL137:
 458:Core/Src/freertos.c ****   {
 1230              		.loc 1 458 8 view .LVU263
 1231              	.L56:
 458:Core/Src/freertos.c ****   {
 1232              		.loc 1 458 3 view .LVU264
 461:Core/Src/freertos.c **** 
 1233              		.loc 1 461 5 view .LVU265
 1234 0038 2C4C     		ldr	r4, .L61+20
 1235 003a 2146     		mov	r1, r4
 1236 003c 2848     		ldr	r0, .L61+8
 1237 003e FFF7FEFF 		bl	MPU6050_Read_Accel
 1238              	.LVL138:
 464:Core/Src/freertos.c **** 
 1239              		.loc 1 464 5 view .LVU266
ARM GAS  C:\Users\Vento\AppData\Local\Temp\ccfmBiuF.s 			page 35


 464:Core/Src/freertos.c **** 
 1240              		.loc 1 464 29 is_stmt 0 view .LVU267
 1241 0042 D4E90201 		ldrd	r0, [r4, #8]
 464:Core/Src/freertos.c **** 
 1242              		.loc 1 464 33 view .LVU268
 1243 0046 0246     		mov	r2, r0
 1244 0048 0B46     		mov	r3, r1
 1245 004a FFF7FEFF 		bl	__aeabi_dmul
 1246              	.LVL139:
 1247 004e 0646     		mov	r6, r0
 1248 0050 0F46     		mov	r7, r1
 464:Core/Src/freertos.c **** 
 1249              		.loc 1 464 57 view .LVU269
 1250 0052 D4E90401 		ldrd	r0, [r4, #16]
 464:Core/Src/freertos.c **** 
 1251              		.loc 1 464 61 view .LVU270
 1252 0056 0246     		mov	r2, r0
 1253 0058 0B46     		mov	r3, r1
 1254 005a FFF7FEFF 		bl	__aeabi_dmul
 1255              	.LVL140:
 1256 005e 0246     		mov	r2, r0
 1257 0060 0B46     		mov	r3, r1
 464:Core/Src/freertos.c **** 
 1258              		.loc 1 464 47 view .LVU271
 1259 0062 3046     		mov	r0, r6
 1260 0064 3946     		mov	r1, r7
 1261 0066 FFF7FEFF 		bl	__aeabi_dadd
 1262              	.LVL141:
 1263 006a 0646     		mov	r6, r0
 1264 006c 0F46     		mov	r7, r1
 464:Core/Src/freertos.c **** 
 1265              		.loc 1 464 85 view .LVU272
 1266 006e D4E90601 		ldrd	r0, [r4, #24]
 464:Core/Src/freertos.c **** 
 1267              		.loc 1 464 89 view .LVU273
 1268 0072 0246     		mov	r2, r0
 1269 0074 0B46     		mov	r3, r1
 1270 0076 FFF7FEFF 		bl	__aeabi_dmul
 1271              	.LVL142:
 1272 007a 0246     		mov	r2, r0
 1273 007c 0B46     		mov	r3, r1
 464:Core/Src/freertos.c **** 
 1274              		.loc 1 464 16 view .LVU274
 1275 007e 3046     		mov	r0, r6
 1276 0080 3946     		mov	r1, r7
 1277 0082 FFF7FEFF 		bl	__aeabi_dadd
 1278              	.LVL143:
 1279 0086 FFF7FEFF 		bl	sqrt
 1280              	.LVL144:
 1281 008a FFF7FEFF 		bl	__aeabi_d2f
 1282              	.LVL145:
 1283 008e 0446     		mov	r4, r0
 464:Core/Src/freertos.c **** 
 1284              		.loc 1 464 14 view .LVU275
 1285 0090 174B     		ldr	r3, .L61+24
 1286 0092 1860     		str	r0, [r3]	@ float
 466:Core/Src/freertos.c ****     {
ARM GAS  C:\Users\Vento\AppData\Local\Temp\ccfmBiuF.s 			page 36


 1287              		.loc 1 466 5 is_stmt 1 view .LVU276
 466:Core/Src/freertos.c ****     {
 1288              		.loc 1 466 8 is_stmt 0 view .LVU277
 1289 0094 0021     		movs	r1, #0
 1290 0096 FFF7FEFF 		bl	__aeabi_fcmpeq
 1291              	.LVL146:
 1292 009a 10B1     		cbz	r0, .L49
 469:Core/Src/freertos.c ****     }
 1293              		.loc 1 469 7 is_stmt 1 view .LVU278
 469:Core/Src/freertos.c ****     }
 1294              		.loc 1 469 17 is_stmt 0 view .LVU279
 1295 009c 114B     		ldr	r3, .L61+12
 1296 009e 0022     		movs	r2, #0
 1297 00a0 1A70     		strb	r2, [r3]
 1298              	.L49:
 471:Core/Src/freertos.c ****     {
 1299              		.loc 1 471 5 is_stmt 1 view .LVU280
 471:Core/Src/freertos.c ****     {
 1300              		.loc 1 471 19 is_stmt 0 view .LVU281
 1301 00a2 2046     		mov	r0, r4
 1302 00a4 FFF7FEFF 		bl	__aeabi_f2d
 1303              	.LVL147:
 471:Core/Src/freertos.c ****     {
 1304              		.loc 1 471 8 view .LVU282
 1305 00a8 0BA3     		adr	r3, .L61
 1306 00aa D3E90023 		ldrd	r2, [r3]
 1307 00ae FFF7FEFF 		bl	__aeabi_dcmplt
 1308              	.LVL148:
 1309 00b2 0028     		cmp	r0, #0
 1310 00b4 AFD0     		beq	.L51
 471:Core/Src/freertos.c ****     {
 1311              		.loc 1 471 39 discriminator 1 view .LVU283
 1312 00b6 0F4B     		ldr	r3, .L61+28
 1313 00b8 1B78     		ldrb	r3, [r3]	@ zero_extendqisi2
 471:Core/Src/freertos.c ****     {
 1314              		.loc 1 471 27 discriminator 1 view .LVU284
 1315 00ba 002B     		cmp	r3, #0
 1316 00bc ABD1     		bne	.L51
 471:Core/Src/freertos.c ****     {
 1317              		.loc 1 471 45 discriminator 2 view .LVU285
 1318 00be 0021     		movs	r1, #0
 1319 00c0 2046     		mov	r0, r4
 1320 00c2 FFF7FEFF 		bl	__aeabi_fcmpeq
 1321              	.LVL149:
 1322 00c6 0028     		cmp	r0, #0
 1323 00c8 A5D1     		bne	.L51
 474:Core/Src/freertos.c ****       // HAL_GPIO_TogglePin(LED_GPIO_Port, LED_Pin);
 1324              		.loc 1 474 7 is_stmt 1 view .LVU286
 474:Core/Src/freertos.c ****       // HAL_GPIO_TogglePin(LED_GPIO_Port, LED_Pin);
 1325              		.loc 1 474 15 is_stmt 0 view .LVU287
 1326 00ca 0A4B     		ldr	r3, .L61+28
 1327 00cc 0122     		movs	r2, #1
 1328 00ce 1A70     		strb	r2, [r3]
 1329 00d0 A1E7     		b	.L51
 1330              	.L62:
 1331 00d2 00BFAFF3 		.align	3
 1331      0080
ARM GAS  C:\Users\Vento\AppData\Local\Temp\ccfmBiuF.s 			page 37


 1332              	.L61:
 1333 00d8 33333333 		.word	858993459
 1334 00dc 3333D33F 		.word	1070805811
 1335 00e0 00000000 		.word	hi2c1
 1336 00e4 00000000 		.word	.LANCHOR0
 1337 00e8 00000000 		.word	hiwdg
 1338 00ec 00000000 		.word	.LANCHOR9
 1339 00f0 00000000 		.word	.LANCHOR10
 1340 00f4 00000000 		.word	.LANCHOR2
 1341              		.cfi_endproc
 1342              	.LFE74:
 1344              		.section	.text.Callback01,"ax",%progbits
 1345              		.align	1
 1346              		.global	Callback01
 1347              		.syntax unified
 1348              		.thumb
 1349              		.thumb_func
 1350              		.fpu softvfp
 1352              	Callback01:
 1353              	.LVL150:
 1354              	.LFB75:
 542:Core/Src/freertos.c ****   }
 543:Core/Src/freertos.c ****   /* USER CODE END Sensor_Task */
 544:Core/Src/freertos.c **** }
 545:Core/Src/freertos.c **** 
 546:Core/Src/freertos.c **** /* Callback01 function */
 547:Core/Src/freertos.c **** void Callback01(void *argument)
 548:Core/Src/freertos.c **** {
 1355              		.loc 1 548 1 is_stmt 1 view -0
 1356              		.cfi_startproc
 1357              		@ args = 0, pretend = 0, frame = 0
 1358              		@ frame_needed = 0, uses_anonymous_args = 0
 1359              		.loc 1 548 1 is_stmt 0 view .LVU289
 1360 0000 08B5     		push	{r3, lr}
 1361              	.LCFI3:
 1362              		.cfi_def_cfa_offset 8
 1363              		.cfi_offset 3, -8
 1364              		.cfi_offset 14, -4
 549:Core/Src/freertos.c ****   /* USER CODE BEGIN Callback01 */
 550:Core/Src/freertos.c ****   // TIMER 1s RESET CLK
 551:Core/Src/freertos.c ****   HAL_GPIO_TogglePin(LED_GPIO_Port, LED_Pin);
 1365              		.loc 1 551 3 is_stmt 1 view .LVU290
 1366 0002 4FF40051 		mov	r1, #8192
 1367 0006 0648     		ldr	r0, .L67
 1368              	.LVL151:
 1369              		.loc 1 551 3 is_stmt 0 view .LVU291
 1370 0008 FFF7FEFF 		bl	HAL_GPIO_TogglePin
 1371              	.LVL152:
 552:Core/Src/freertos.c ****   if (is_MPU_OK == 1)     HAL_IWDG_Refresh(&hiwdg);
 1372              		.loc 1 552 3 is_stmt 1 view .LVU292
 1373              		.loc 1 552 17 is_stmt 0 view .LVU293
 1374 000c 054B     		ldr	r3, .L67+4
 1375 000e 1B78     		ldrb	r3, [r3]	@ zero_extendqisi2
 1376              		.loc 1 552 6 view .LVU294
 1377 0010 012B     		cmp	r3, #1
 1378 0012 00D0     		beq	.L66
 1379              	.L63:
ARM GAS  C:\Users\Vento\AppData\Local\Temp\ccfmBiuF.s 			page 38


 553:Core/Src/freertos.c ****   /* USER CODE END Callback01 */
 554:Core/Src/freertos.c **** }
 1380              		.loc 1 554 1 view .LVU295
 1381 0014 08BD     		pop	{r3, pc}
 1382              	.L66:
 552:Core/Src/freertos.c ****   if (is_MPU_OK == 1)     HAL_IWDG_Refresh(&hiwdg);
 1383              		.loc 1 552 27 is_stmt 1 discriminator 1 view .LVU296
 1384 0016 0448     		ldr	r0, .L67+8
 1385 0018 FFF7FEFF 		bl	HAL_IWDG_Refresh
 1386              	.LVL153:
 1387              		.loc 1 554 1 is_stmt 0 discriminator 1 view .LVU297
 1388 001c FAE7     		b	.L63
 1389              	.L68:
 1390 001e 00BF     		.align	2
 1391              	.L67:
 1392 0020 00100140 		.word	1073811456
 1393 0024 00000000 		.word	.LANCHOR0
 1394 0028 00000000 		.word	hiwdg
 1395              		.cfi_endproc
 1396              	.LFE75:
 1398              		.section	.text.MX_FREERTOS_Init,"ax",%progbits
 1399              		.align	1
 1400              		.global	MX_FREERTOS_Init
 1401              		.syntax unified
 1402              		.thumb
 1403              		.thumb_func
 1404              		.fpu softvfp
 1406              	MX_FREERTOS_Init:
 1407              	.LFB72:
 137:Core/Src/freertos.c ****   /* USER CODE BEGIN Init */
 1408              		.loc 1 137 29 is_stmt 1 view -0
 1409              		.cfi_startproc
 1410              		@ args = 0, pretend = 0, frame = 0
 1411              		@ frame_needed = 0, uses_anonymous_args = 0
 1412 0000 08B5     		push	{r3, lr}
 1413              	.LCFI4:
 1414              		.cfi_def_cfa_offset 8
 1415              		.cfi_offset 3, -8
 1416              		.cfi_offset 14, -4
 152:Core/Src/freertos.c **** 
 1417              		.loc 1 152 3 view .LVU299
 152:Core/Src/freertos.c **** 
 1418              		.loc 1 152 20 is_stmt 0 view .LVU300
 1419 0002 0B4B     		ldr	r3, .L71
 1420 0004 0022     		movs	r2, #0
 1421 0006 0121     		movs	r1, #1
 1422 0008 0A48     		ldr	r0, .L71+4
 1423 000a FFF7FEFF 		bl	osTimerNew
 1424              	.LVL154:
 152:Core/Src/freertos.c **** 
 1425              		.loc 1 152 18 view .LVU301
 1426 000e 0A4B     		ldr	r3, .L71+8
 1427 0010 1860     		str	r0, [r3]
 164:Core/Src/freertos.c **** 
 1428              		.loc 1 164 3 is_stmt 1 view .LVU302
 164:Core/Src/freertos.c **** 
 1429              		.loc 1 164 16 is_stmt 0 view .LVU303
ARM GAS  C:\Users\Vento\AppData\Local\Temp\ccfmBiuF.s 			page 39


 1430 0012 0A4A     		ldr	r2, .L71+12
 1431 0014 0021     		movs	r1, #0
 1432 0016 0A48     		ldr	r0, .L71+16
 1433 0018 FFF7FEFF 		bl	osThreadNew
 1434              	.LVL155:
 164:Core/Src/freertos.c **** 
 1435              		.loc 1 164 14 view .LVU304
 1436 001c 094B     		ldr	r3, .L71+20
 1437 001e 1860     		str	r0, [r3]
 167:Core/Src/freertos.c **** 
 1438              		.loc 1 167 3 is_stmt 1 view .LVU305
 167:Core/Src/freertos.c **** 
 1439              		.loc 1 167 19 is_stmt 0 view .LVU306
 1440 0020 094A     		ldr	r2, .L71+24
 1441 0022 0021     		movs	r1, #0
 1442 0024 0948     		ldr	r0, .L71+28
 1443 0026 FFF7FEFF 		bl	osThreadNew
 1444              	.LVL156:
 167:Core/Src/freertos.c **** 
 1445              		.loc 1 167 17 view .LVU307
 1446 002a 094B     		ldr	r3, .L71+32
 1447 002c 1860     		str	r0, [r3]
 177:Core/Src/freertos.c **** 
 1448              		.loc 1 177 1 view .LVU308
 1449 002e 08BD     		pop	{r3, pc}
 1450              	.L72:
 1451              		.align	2
 1452              	.L71:
 1453 0030 00000000 		.word	.LANCHOR11
 1454 0034 00000000 		.word	Callback01
 1455 0038 00000000 		.word	.LANCHOR1
 1456 003c 00000000 		.word	.LANCHOR12
 1457 0040 00000000 		.word	MQTT_Task
 1458 0044 00000000 		.word	.LANCHOR13
 1459 0048 00000000 		.word	.LANCHOR14
 1460 004c 00000000 		.word	Sensor_Task
 1461 0050 00000000 		.word	.LANCHOR15
 1462              		.cfi_endproc
 1463              	.LFE72:
 1465              		.section	.text.HAL_GPIO_EXTI_Callback,"ax",%progbits
 1466              		.align	1
 1467              		.global	HAL_GPIO_EXTI_Callback
 1468              		.syntax unified
 1469              		.thumb
 1470              		.thumb_func
 1471              		.fpu softvfp
 1473              	HAL_GPIO_EXTI_Callback:
 1474              	.LVL157:
 1475              	.LFB76:
 555:Core/Src/freertos.c **** 
 556:Core/Src/freertos.c **** /* Private application code --------------------------------------------------*/
 557:Core/Src/freertos.c **** /* USER CODE BEGIN Application */
 558:Core/Src/freertos.c **** void HAL_GPIO_EXTI_Callback(uint16_t GPIO_Pin)
 559:Core/Src/freertos.c **** {
 1476              		.loc 1 559 1 is_stmt 1 view -0
 1477              		.cfi_startproc
 1478              		@ args = 0, pretend = 0, frame = 0
ARM GAS  C:\Users\Vento\AppData\Local\Temp\ccfmBiuF.s 			page 40


 1479              		@ frame_needed = 0, uses_anonymous_args = 0
 1480              		@ link register save eliminated.
 560:Core/Src/freertos.c ****   if ((GPIO_Pin == GPIO_PIN_0) && (is_fall == 0))
 1481              		.loc 1 560 3 view .LVU310
 1482              		.loc 1 560 6 is_stmt 0 view .LVU311
 1483 0000 0128     		cmp	r0, #1
 1484 0002 00D0     		beq	.L75
 1485              	.L73:
 561:Core/Src/freertos.c ****   {
 562:Core/Src/freertos.c ****     is_fall = 1;
 563:Core/Src/freertos.c ****   }
 564:Core/Src/freertos.c **** }
 1486              		.loc 1 564 1 view .LVU312
 1487 0004 7047     		bx	lr
 1488              	.L75:
 560:Core/Src/freertos.c ****   if ((GPIO_Pin == GPIO_PIN_0) && (is_fall == 0))
 1489              		.loc 1 560 44 discriminator 1 view .LVU313
 1490 0006 044B     		ldr	r3, .L76
 1491 0008 1B78     		ldrb	r3, [r3]	@ zero_extendqisi2
 560:Core/Src/freertos.c ****   if ((GPIO_Pin == GPIO_PIN_0) && (is_fall == 0))
 1492              		.loc 1 560 32 discriminator 1 view .LVU314
 1493 000a 002B     		cmp	r3, #0
 1494 000c FAD1     		bne	.L73
 562:Core/Src/freertos.c ****   }
 1495              		.loc 1 562 5 is_stmt 1 view .LVU315
 562:Core/Src/freertos.c ****   }
 1496              		.loc 1 562 13 is_stmt 0 view .LVU316
 1497 000e 024B     		ldr	r3, .L76
 1498 0010 0122     		movs	r2, #1
 1499 0012 1A70     		strb	r2, [r3]
 1500              		.loc 1 564 1 view .LVU317
 1501 0014 F6E7     		b	.L73
 1502              	.L77:
 1503 0016 00BF     		.align	2
 1504              	.L76:
 1505 0018 00000000 		.word	.LANCHOR2
 1506              		.cfi_endproc
 1507              	.LFE76:
 1509              		.global	SecTimer_attributes
 1510              		.section	.rodata.str1.4,"aMS",%progbits,1
 1511              		.align	2
 1512              	.LC29:
 1513 0000 53656354 		.ascii	"SecTimer\000"
 1513      696D6572 
 1513      00
 1514              		.global	SecTimerHandle
 1515              		.global	SENSORs_attributes
 1516 0009 000000   		.align	2
 1517              	.LC30:
 1518 000c 53454E53 		.ascii	"SENSORs\000"
 1518      4F527300 
 1519              		.global	SENSORsHandle
 1520              		.global	MQTT_attributes
 1521              		.align	2
 1522              	.LC31:
 1523 0014 4D515454 		.ascii	"MQTT\000"
 1523      00
ARM GAS  C:\Users\Vento\AppData\Local\Temp\ccfmBiuF.s 			page 41


 1524              		.global	MQTTHandle
 1525              		.global	Number
 1526              		.global	SMS
 1527              		.global	Lat
 1528              		.global	Lon
 1529              		.global	is_GPS_new
 1530              		.global	is_MPU_OK
 1531              		.global	is_busy
 1532              		.global	is_fall
 1533              		.global	is_SMS_done
 1534              		.global	gGravity
 1535              		.global	MPU6050
 1536              		.section	.bss.Lat,"aw",%nobits
 1537              		.align	2
 1538              		.set	.LANCHOR6,. + 0
 1541              	Lat:
 1542 0000 00000000 		.space	4
 1543              		.section	.bss.Lon,"aw",%nobits
 1544              		.align	2
 1545              		.set	.LANCHOR7,. + 0
 1548              	Lon:
 1549 0000 00000000 		.space	4
 1550              		.section	.bss.MPU6050,"aw",%nobits
 1551              		.align	3
 1552              		.set	.LANCHOR9,. + 0
 1555              	MPU6050:
 1556 0000 00000000 		.space	88
 1556      00000000 
 1556      00000000 
 1556      00000000 
 1556      00000000 
 1557              		.section	.bss.MQTTHandle,"aw",%nobits
 1558              		.align	2
 1559              		.set	.LANCHOR13,. + 0
 1562              	MQTTHandle:
 1563 0000 00000000 		.space	4
 1564              		.section	.bss.SENSORsHandle,"aw",%nobits
 1565              		.align	2
 1566              		.set	.LANCHOR15,. + 0
 1569              	SENSORsHandle:
 1570 0000 00000000 		.space	4
 1571              		.section	.bss.SMS,"aw",%nobits
 1572              		.align	2
 1573              		.set	.LANCHOR3,. + 0
 1576              	SMS:
 1577 0000 00000000 		.space	200
 1577      00000000 
 1577      00000000 
 1577      00000000 
 1577      00000000 
 1578              		.section	.bss.SecTimerHandle,"aw",%nobits
 1579              		.align	2
 1580              		.set	.LANCHOR1,. + 0
 1583              	SecTimerHandle:
 1584 0000 00000000 		.space	4
 1585              		.section	.bss.gGravity,"aw",%nobits
 1586              		.align	2
ARM GAS  C:\Users\Vento\AppData\Local\Temp\ccfmBiuF.s 			page 42


 1587              		.set	.LANCHOR10,. + 0
 1590              	gGravity:
 1591 0000 00000000 		.space	4
 1592              		.section	.bss.is_GPS_new,"aw",%nobits
 1593              		.set	.LANCHOR5,. + 0
 1596              	is_GPS_new:
 1597 0000 00       		.space	1
 1598              		.section	.bss.is_MPU_OK,"aw",%nobits
 1599              		.set	.LANCHOR0,. + 0
 1602              	is_MPU_OK:
 1603 0000 00       		.space	1
 1604              		.section	.bss.is_SMS_done,"aw",%nobits
 1605              		.set	.LANCHOR8,. + 0
 1608              	is_SMS_done:
 1609 0000 00       		.space	1
 1610              		.section	.bss.is_busy,"aw",%nobits
 1613              	is_busy:
 1614 0000 00       		.space	1
 1615              		.section	.bss.is_fall,"aw",%nobits
 1616              		.set	.LANCHOR2,. + 0
 1619              	is_fall:
 1620 0000 00       		.space	1
 1621              		.section	.data.Number,"aw"
 1622              		.align	2
 1623              		.set	.LANCHOR4,. + 0
 1626              	Number:
 1627 0000 30393134 		.ascii	"0914989855\000"
 1627      39383938 
 1627      353500
 1628 000b 0000     		.space	2
 1629              		.section	.rodata.MQTT_attributes,"a"
 1630              		.align	2
 1631              		.set	.LANCHOR12,. + 0
 1634              	MQTT_attributes:
 1635 0000 14000000 		.word	.LC31
 1636 0004 00000000 		.space	16
 1636      00000000 
 1636      00000000 
 1636      00000000 
 1637 0014 78050000 		.word	1400
 1638 0018 18000000 		.word	24
 1639 001c 00000000 		.space	8
 1639      00000000 
 1640              		.section	.rodata.SENSORs_attributes,"a"
 1641              		.align	2
 1642              		.set	.LANCHOR14,. + 0
 1645              	SENSORs_attributes:
 1646 0000 0C000000 		.word	.LC30
 1647 0004 00000000 		.space	16
 1647      00000000 
 1647      00000000 
 1647      00000000 
 1648 0014 58020000 		.word	600
 1649 0018 08000000 		.word	8
 1650 001c 00000000 		.space	8
 1650      00000000 
 1651              		.section	.rodata.SecTimer_attributes,"a"
ARM GAS  C:\Users\Vento\AppData\Local\Temp\ccfmBiuF.s 			page 43


 1652              		.align	2
 1653              		.set	.LANCHOR11,. + 0
 1656              	SecTimer_attributes:
 1657 0000 00000000 		.word	.LC29
 1658 0004 00000000 		.space	12
 1658      00000000 
 1658      00000000 
 1659              		.text
 1660              	.Letext0:
 1661              		.file 2 "d:\\tools\\gcc-arm-none-eabi-10.3-2021.07\\arm-none-eabi\\include\\machine\\_default_type
 1662              		.file 3 "d:\\tools\\gcc-arm-none-eabi-10.3-2021.07\\arm-none-eabi\\include\\sys\\_stdint.h"
 1663              		.file 4 "Drivers/CMSIS/Device/ST/STM32F1xx/Include/stm32f103xb.h"
 1664              		.file 5 "Drivers/STM32F1xx_HAL_Driver/Inc/stm32f1xx_hal_def.h"
 1665              		.file 6 "Drivers/STM32F1xx_HAL_Driver/Inc/stm32f1xx_hal_dma.h"
 1666              		.file 7 "Drivers/STM32F1xx_HAL_Driver/Inc/stm32f1xx_hal_i2c.h"
 1667              		.file 8 "Drivers/STM32F1xx_HAL_Driver/Inc/stm32f1xx_hal_iwdg.h"
 1668              		.file 9 "Drivers/STM32F1xx_HAL_Driver/Inc/stm32f1xx_hal_uart.h"
 1669              		.file 10 "Middlewares/Third_Party/FreeRTOS/Source/CMSIS_RTOS_V2/cmsis_os2.h"
 1670              		.file 11 "Core/Inc/MQTTSim800.h"
 1671              		.file 12 "Core/Inc/mpu6050.h"
 1672              		.file 13 "Core/Inc/i2c.h"
 1673              		.file 14 "Drivers/STM32F1xx_HAL_Driver/Inc/stm32f1xx_hal_gpio.h"
 1674              		.file 15 "d:\\tools\\gcc-arm-none-eabi-10.3-2021.07\\arm-none-eabi\\include\\math.h"
 1675              		.file 16 "Drivers/STM32F1xx_HAL_Driver/Inc/stm32f1xx_hal.h"
 1676              		.file 17 "<built-in>"
 1677              		.file 18 "d:\\tools\\gcc-arm-none-eabi-10.3-2021.07\\arm-none-eabi\\include\\stdio.h"
 1678              		.file 19 "d:\\tools\\gcc-arm-none-eabi-10.3-2021.07\\arm-none-eabi\\include\\string.h"
ARM GAS  C:\Users\Vento\AppData\Local\Temp\ccfmBiuF.s 			page 44


DEFINED SYMBOLS
                            *ABS*:00000000 freertos.c
C:\Users\Vento\AppData\Local\Temp\ccfmBiuF.s:16     .rodata.MQTT_Task.str1.4:00000000 $d
C:\Users\Vento\AppData\Local\Temp\ccfmBiuF.s:109    .text.MQTT_Task:00000000 $t
C:\Users\Vento\AppData\Local\Temp\ccfmBiuF.s:117    .text.MQTT_Task:00000000 MQTT_Task
C:\Users\Vento\AppData\Local\Temp\ccfmBiuF.s:587    .text.MQTT_Task:000002bc $d
C:\Users\Vento\AppData\Local\Temp\ccfmBiuF.s:626    .text.MQTT_Task:0000034c $t
C:\Users\Vento\AppData\Local\Temp\ccfmBiuF.s:1119   .text.MQTT_Task:000005fc $d
C:\Users\Vento\AppData\Local\Temp\ccfmBiuF.s:1160   .text.Sensor_Task:00000000 $t
C:\Users\Vento\AppData\Local\Temp\ccfmBiuF.s:1167   .text.Sensor_Task:00000000 Sensor_Task
C:\Users\Vento\AppData\Local\Temp\ccfmBiuF.s:1333   .text.Sensor_Task:000000d8 $d
C:\Users\Vento\AppData\Local\Temp\ccfmBiuF.s:1345   .text.Callback01:00000000 $t
C:\Users\Vento\AppData\Local\Temp\ccfmBiuF.s:1352   .text.Callback01:00000000 Callback01
C:\Users\Vento\AppData\Local\Temp\ccfmBiuF.s:1392   .text.Callback01:00000020 $d
C:\Users\Vento\AppData\Local\Temp\ccfmBiuF.s:1399   .text.MX_FREERTOS_Init:00000000 $t
C:\Users\Vento\AppData\Local\Temp\ccfmBiuF.s:1406   .text.MX_FREERTOS_Init:00000000 MX_FREERTOS_Init
C:\Users\Vento\AppData\Local\Temp\ccfmBiuF.s:1453   .text.MX_FREERTOS_Init:00000030 $d
C:\Users\Vento\AppData\Local\Temp\ccfmBiuF.s:1466   .text.HAL_GPIO_EXTI_Callback:00000000 $t
C:\Users\Vento\AppData\Local\Temp\ccfmBiuF.s:1473   .text.HAL_GPIO_EXTI_Callback:00000000 HAL_GPIO_EXTI_Callback
C:\Users\Vento\AppData\Local\Temp\ccfmBiuF.s:1505   .text.HAL_GPIO_EXTI_Callback:00000018 $d
C:\Users\Vento\AppData\Local\Temp\ccfmBiuF.s:1656   .rodata.SecTimer_attributes:00000000 SecTimer_attributes
C:\Users\Vento\AppData\Local\Temp\ccfmBiuF.s:1511   .rodata.str1.4:00000000 $d
C:\Users\Vento\AppData\Local\Temp\ccfmBiuF.s:1583   .bss.SecTimerHandle:00000000 SecTimerHandle
C:\Users\Vento\AppData\Local\Temp\ccfmBiuF.s:1645   .rodata.SENSORs_attributes:00000000 SENSORs_attributes
C:\Users\Vento\AppData\Local\Temp\ccfmBiuF.s:1569   .bss.SENSORsHandle:00000000 SENSORsHandle
C:\Users\Vento\AppData\Local\Temp\ccfmBiuF.s:1634   .rodata.MQTT_attributes:00000000 MQTT_attributes
C:\Users\Vento\AppData\Local\Temp\ccfmBiuF.s:1562   .bss.MQTTHandle:00000000 MQTTHandle
C:\Users\Vento\AppData\Local\Temp\ccfmBiuF.s:1626   .data.Number:00000000 Number
C:\Users\Vento\AppData\Local\Temp\ccfmBiuF.s:1576   .bss.SMS:00000000 SMS
C:\Users\Vento\AppData\Local\Temp\ccfmBiuF.s:1541   .bss.Lat:00000000 Lat
C:\Users\Vento\AppData\Local\Temp\ccfmBiuF.s:1548   .bss.Lon:00000000 Lon
C:\Users\Vento\AppData\Local\Temp\ccfmBiuF.s:1596   .bss.is_GPS_new:00000000 is_GPS_new
C:\Users\Vento\AppData\Local\Temp\ccfmBiuF.s:1602   .bss.is_MPU_OK:00000000 is_MPU_OK
C:\Users\Vento\AppData\Local\Temp\ccfmBiuF.s:1613   .bss.is_busy:00000000 is_busy
C:\Users\Vento\AppData\Local\Temp\ccfmBiuF.s:1619   .bss.is_fall:00000000 is_fall
C:\Users\Vento\AppData\Local\Temp\ccfmBiuF.s:1608   .bss.is_SMS_done:00000000 is_SMS_done
C:\Users\Vento\AppData\Local\Temp\ccfmBiuF.s:1590   .bss.gGravity:00000000 gGravity
C:\Users\Vento\AppData\Local\Temp\ccfmBiuF.s:1555   .bss.MPU6050:00000000 MPU6050
C:\Users\Vento\AppData\Local\Temp\ccfmBiuF.s:1537   .bss.Lat:00000000 $d
C:\Users\Vento\AppData\Local\Temp\ccfmBiuF.s:1544   .bss.Lon:00000000 $d
C:\Users\Vento\AppData\Local\Temp\ccfmBiuF.s:1551   .bss.MPU6050:00000000 $d
C:\Users\Vento\AppData\Local\Temp\ccfmBiuF.s:1558   .bss.MQTTHandle:00000000 $d
C:\Users\Vento\AppData\Local\Temp\ccfmBiuF.s:1565   .bss.SENSORsHandle:00000000 $d
C:\Users\Vento\AppData\Local\Temp\ccfmBiuF.s:1572   .bss.SMS:00000000 $d
C:\Users\Vento\AppData\Local\Temp\ccfmBiuF.s:1579   .bss.SecTimerHandle:00000000 $d
C:\Users\Vento\AppData\Local\Temp\ccfmBiuF.s:1586   .bss.gGravity:00000000 $d
C:\Users\Vento\AppData\Local\Temp\ccfmBiuF.s:1597   .bss.is_GPS_new:00000000 $d
C:\Users\Vento\AppData\Local\Temp\ccfmBiuF.s:1603   .bss.is_MPU_OK:00000000 $d
C:\Users\Vento\AppData\Local\Temp\ccfmBiuF.s:1609   .bss.is_SMS_done:00000000 $d
C:\Users\Vento\AppData\Local\Temp\ccfmBiuF.s:1614   .bss.is_busy:00000000 $d
C:\Users\Vento\AppData\Local\Temp\ccfmBiuF.s:1620   .bss.is_fall:00000000 $d
C:\Users\Vento\AppData\Local\Temp\ccfmBiuF.s:1622   .data.Number:00000000 $d
C:\Users\Vento\AppData\Local\Temp\ccfmBiuF.s:1630   .rodata.MQTT_attributes:00000000 $d
C:\Users\Vento\AppData\Local\Temp\ccfmBiuF.s:1641   .rodata.SENSORs_attributes:00000000 $d
C:\Users\Vento\AppData\Local\Temp\ccfmBiuF.s:1652   .rodata.SecTimer_attributes:00000000 $d

UNDEFINED SYMBOLS
ARM GAS  C:\Users\Vento\AppData\Local\Temp\ccfmBiuF.s 			page 45


__aeabi_f2d
__aeabi_fcmpeq
osDelay
HAL_UART_Receive_IT
HAL_GPIO_WritePin
SIM800_SendCommand
MQTT_Init
osTimerStart
MQTT_Pub
HAL_GetTick
memset
HAL_IWDG_Refresh
strlen
snprintf
strcat
HAL_UART_Transmit_IT
SIM800
rx_data
huart1
hiwdg
myGPS
getBattery
MQTT_PubUint8
MQTT_PubUint16
MQTT_Connect
getGPS
osTimerStop
SIM800_Batt
SIM800_Status
__aeabi_dmul
__aeabi_dadd
__aeabi_d2f
__aeabi_dcmplt
MPU6050_Init
MPU6050_Read_Accel
sqrt
hi2c1
HAL_GPIO_TogglePin
osTimerNew
osThreadNew
